Component: ARM Compiler 5.06 update 7 (build 960) Tool: armlink [4d3601]

==============================================================================

Section Cross References

    startup_stm32f429nihx.o(STACK) refers (Special) to heapauxi.o(.text) for __use_two_region_memory
    startup_stm32f429nihx.o(HEAP) refers (Special) to heapauxi.o(.text) for __use_two_region_memory
    startup_stm32f429nihx.o(RESET) refers (Special) to heapauxi.o(.text) for __use_two_region_memory
    startup_stm32f429nihx.o(RESET) refers to startup_stm32f429nihx.o(STACK) for __initial_sp
    startup_stm32f429nihx.o(RESET) refers to startup_stm32f429nihx.o(.text) for Reset_Handler
    startup_stm32f429nihx.o(RESET) refers to stm32f4xx_it.o(.text) for SysTick_Handler
    startup_stm32f429nihx.o(.text) refers (Special) to heapauxi.o(.text) for __use_two_region_memory
    startup_stm32f429nihx.o(.text) refers to system_stm32f4xx.o(.text) for SystemInit
    startup_stm32f429nihx.o(.text) refers to __main.o(!!!main) for __main
    startup_stm32f429nihx.o(.text) refers to startup_stm32f429nihx.o(HEAP) for Heap_Mem
    startup_stm32f429nihx.o(.text) refers to startup_stm32f429nihx.o(STACK) for Stack_Mem
    aes256.o(.text) refers to aes256.o(.constdata) for B5_rcon
    aes256.o(.text) refers to rt_memclr_w.o(.text) for __aeabi_memclr4
    aes256.o(.text) refers to aeabi_memset.o(.text) for __aeabi_memset
    aes256.o(.text) refers to rt_memcpy_v6.o(.text) for __aeabi_memcpy
    aes256.o(.text) refers to rt_memclr.o(.text) for __aeabi_memclr
    crc16.o(.text) refers to crc16.o(.constdata) for se3_crc16_table
    pbkdf2.o(.text) refers to rt_memcpy_w.o(.text) for __aeabi_memcpy4
    pbkdf2.o(.text) refers to sha256.o(.text) for B5_HmacSha256_Update
    pbkdf2.o(.text) refers to rt_memcpy_v6.o(.text) for __aeabi_memcpy
    sha256.o(.text) refers to rt_memclr_w.o(.text) for __aeabi_memclr4
    sha256.o(.text) refers to rt_memcpy_v6.o(.text) for __aeabi_memcpy
    sha256.o(.text) refers to aeabi_memset.o(.text) for __aeabi_memset
    se3_algo_aes.o(.text) refers to aes256.o(.text) for B5_Aes256_Init
    se3_algo_aes256hmacsha256.o(.text) refers to pbkdf2.o(.text) for PBKDF2HmacSha256
    se3_algo_aes256hmacsha256.o(.text) refers to sha256.o(.text) for B5_HmacSha256_Init
    se3_algo_aes256hmacsha256.o(.text) refers to aes256.o(.text) for B5_Aes256_Init
    se3_algo_aes256hmacsha256.o(.text) refers to memcmp.o(.text) for memcmp
    se3_algo_aes256hmacsha256.o(.text) refers to se3_algo_aes256hmacsha256.o(.constdata) for salt
    se3_algo_aeshmacsha256s.o(.text) refers to rt_memcpy_v6.o(.text) for __aeabi_memcpy
    se3_algo_aeshmacsha256s.o(.text) refers to pbkdf2.o(.text) for PBKDF2HmacSha256
    se3_algo_aeshmacsha256s.o(.text) refers to aes256.o(.text) for B5_Aes256_Init
    se3_algo_aeshmacsha256s.o(.text) refers to sha256.o(.text) for B5_HmacSha256_Init
    se3_algo_hmacsha256.o(.text) refers to sha256.o(.text) for B5_HmacSha256_Init
    se3_algo_sha256.o(.text) refers to sha256.o(.text) for B5_Sha256_Init
    se3_communication_core.o(.text) refers to rt_memclr_w.o(.text) for __aeabi_memclr4
    se3_communication_core.o(.text) refers to rt_memclr.o(.text) for __aeabi_memclr
    se3_communication_core.o(.text) refers to memcmp.o(.text) for memcmp
    se3_communication_core.o(.text) refers to se3_sdio.o(.text) for secube_sdio_write
    se3_communication_core.o(.text) refers to rt_memcpy_v6.o(.text) for __aeabi_memcpy
    se3_communication_core.o(.text) refers to se3_communication_core.o(.bss) for comm
    se3_communication_core.o(.text) refers to se3_common.o(.bss) for serial
    se3_communication_core.o(.text) refers to se3_common.o(.constdata) for se3_magic
    se3_communication_core.o(.text) refers to se3_communication_core.o(.constdata) for se3_hello
    se3_dispatcher_core.o(.text) refers to se3_flash.o(.text) for se3_flash_it_init
    se3_dispatcher_core.o(.text) refers to se3_sekey.o(.text) for store_user_info
    se3_dispatcher_core.o(.text) refers to se3_security_core.o(.text) for record_get
    se3_dispatcher_core.o(.text) refers to rt_memclr_w.o(.text) for __aeabi_memclr4
    se3_dispatcher_core.o(.text) refers to se3_rand.o(.text) for se3_rand
    se3_dispatcher_core.o(.text) refers to pbkdf2.o(.text) for PBKDF2HmacSha256
    se3_dispatcher_core.o(.text) refers to memcmp.o(.text) for memcmp
    se3_dispatcher_core.o(.text) refers to rt_memcpy_v6.o(.text) for __aeabi_memcpy
    se3_dispatcher_core.o(.text) refers to se3_memory.o(.text) for se3_mem_reset
    se3_dispatcher_core.o(.text) refers to rt_memclr.o(.text) for __aeabi_memclr
    se3_dispatcher_core.o(.text) refers to se3_dispatcher_core.o(.bss) for login_struct
    se3_dispatcher_core.o(.text) refers to se3_security_core.o(.bss) for se3_security_info
    se3_dispatcher_core.o(.text) refers to se3_common.o(.constdata) for se3_magic
    se3_dispatcher_core.o(.text) refers to se3_keys.o(.text) for se3_key_find
    se3_dispatcher_core.o(.text) refers to h1_alloc.o(.text) for malloc
    se3_dispatcher_core.o(.text) refers to h1_free.o(.text) for free
    se3_dispatcher_core.o(.text) refers to se3_dispatcher_core.o(.data) for crypto_algo
    se3_dispatcher_core.o(.text) refers to se3_communication_core.o(.bss) for req_hdr
    se3_dispatcher_core.o(.text) refers to se3_core.o(.bss) for se3_sessions_buf
    se3_dispatcher_core.o(.text) refers to rt_memcpy_w.o(.text) for __aeabi_memcpy4
    se3_dispatcher_core.o(.data) refers to se3_dispatcher_core.o(.text) for challenge
    se3_dispatcher_core.o(.data) refers to se3_sekey.o(.text) for load_key_ids
    se3_dispatcher_core.o(.data) refers to se3_security_core.o(.text) for crypto_init
    se3_core.o(.text) refers to se3_communication_core.o(.text) for se3_communication_core_init
    se3_core.o(.text) refers to se3_flash.o(.text) for se3_flash_init
    se3_core.o(.text) refers to se3_dispatcher_core.o(.text) for se3_dispatcher_init
    se3_core.o(.text) refers to se3_common.o(.text) for se3_req_len_data
    se3_core.o(.text) refers to rt_memclr.o(.text) for __aeabi_memclr
    se3_core.o(.text) refers to rt_memcpy_v6.o(.text) for __aeabi_memcpy
    se3_core.o(.text) refers to rt_memcpy_w.o(.text) for __aeabi_memcpy4
    se3_core.o(.text) refers to se3_communication_core.o(.bss) for req_hdr
    se3_core.o(.text) refers to se3_common.o(.data) for hwerror
    se3_core.o(.text) refers to se3_common.o(.bss) for serial
    se3_core.o(.data) refers to se3_dispatcher_core.o(.text) for challenge
    se3_core.o(.data) refers to se3_sekey.o(.text) for load_key_ids
    se3_core.o(.data) refers to se3_security_core.o(.text) for crypto_init
    se3_flash.o(.text) refers to stm32f4xx_hal_flash.o(.text) for HAL_FLASH_Unlock
    se3_flash.o(.text) refers to stm32f4xx_hal_flash_ex.o(.text) for HAL_FLASHEx_Erase
    se3_flash.o(.text) refers to memcmp.o(.text) for memcmp
    se3_flash.o(.text) refers to rt_memcpy_v6.o(.text) for __aeabi_memcpy
    se3_flash.o(.text) refers to se3_common.o(.data) for hwerror
    se3_flash.o(.text) refers to se3_flash.o(.bss) for flash
    se3_flash.o(.text) refers to se3_common.o(.constdata) for se3_magic
    se3_flash.o(.text) refers to se3_common.o(.bss) for serial
    se3_keys.o(.text) refers to se3_flash.o(.text) for se3_flash_it_init
    se3_keys.o(.text) refers to rt_memcpy_v6.o(.text) for __aeabi_memcpy
    se3_keys.o(.text) refers to memcmp.o(.text) for memcmp
    se3_keys.o(.text) refers to pbkdf2.o(.text) for PBKDF2HmacSha256
    se3_memory.o(.text) refers to rt_memclr.o(.text) for __aeabi_memclr
    se3_memory.o(.text) refers to rt_memmove_v6.o(.text) for __aeabi_memmove
    se3_security_core.o(.text) refers to rt_memclr_w.o(.text) for __aeabi_memclr4
    se3_security_core.o(.text) refers to se3_flash.o(.text) for se3_flash_it_next
    se3_security_core.o(.text) refers to rt_memcpy_v6.o(.text) for __aeabi_memcpy
    se3_security_core.o(.text) refers to rt_memclr.o(.text) for __aeabi_memclr
    se3_security_core.o(.text) refers to se3_keys.o(.text) for se3_key_find
    se3_security_core.o(.text) refers to se3_memory.o(.text) for se3_mem_alloc
    se3_security_core.o(.text) refers to se3_security_core.o(.bss) for ctx
    se3_security_core.o(.text) refers to se3_security_core.o(.data) for algo_table
    se3_security_core.o(.text) refers to pbkdf2.o(.text) for PBKDF2HmacSha256
    se3_security_core.o(.text) refers to aes256.o(.text) for B5_Aes256_Init
    se3_security_core.o(.text) refers to rt_memcpy_w.o(.text) for __aeabi_memcpy4
    se3_security_core.o(.text) refers to sha256.o(.text) for B5_HmacSha256_Init
    se3_security_core.o(.text) refers to memcmp.o(.text) for memcmp
    se3_security_core.o(.data) refers to se3_algo_aes.o(.text) for se3_algo_Aes_init
    se3_security_core.o(.data) refers to se3_algo_sha256.o(.text) for se3_algo_Sha256_init
    se3_security_core.o(.data) refers to se3_algo_hmacsha256.o(.text) for se3_algo_HmacSha256_init
    se3_security_core.o(.data) refers to se3_algo_aeshmacsha256s.o(.text) for se3_algo_AesHmacSha256s_init
    se3_sekey.o(.text) refers to se3_flash.o(.text) for se3_flash_it_init
    se3_sekey.o(.text) refers to h1_free.o(.text) for free
    se3_sekey.o(.text) refers to h1_alloc.o(.text) for malloc
    se3_sekey.o(.text) refers to rt_memcpy_v6.o(.text) for __aeabi_memcpy
    se3_sekey.o(.text) refers to rt_memclr_w.o(.text) for __aeabi_memclr4
    se3_sekey.o(.text) refers to se3_security_core.o(.text) for crypto_init
    se3_sekey.o(.text) refers to rt_memcpy_w.o(.text) for __aeabi_memcpy4
    se3_sekey.o(.text) refers to rt_memclr.o(.text) for __aeabi_memclr
    se3_sekey.o(.text) refers to aeabi_memset.o(.text) for __aeabi_memset
    se3_sekey.o(.text) refers to se3_dispatcher_core.o(.bss) for login_struct
    se3_sekey.o(.text) refers to se3_rand.o(.text) for se3_rand
    se3_sekey.o(.text) refers to se3_sekey.o(.bss) for key_iterator
    se3_sekey.o(.text) refers to se3_keys.o(.text) for se3_key_find
    se3_sekey.o(.data) refers to se3_dispatcher_core.o(.text) for challenge
    se3_sekey.o(.data) refers to se3_sekey.o(.text) for load_key_ids
    se3_sekey.o(.data) refers to se3_security_core.o(.text) for crypto_init
    fpga.o(.text) refers to stm32f4xx_hal_gpio.o(.text) for HAL_GPIO_ReadPin
    fpga.o(.text) refers to stm32f4xx_hal.o(.text) for HAL_GetTick
    fpga.o(.text) refers to fpga.o(.data) for g_cCurrentJTAGState
    fpga.o(.text) refers to fpga.o(.constdata) for iStates
    fpga.o(.data) refers to fpga.o(.conststring) for .conststring
    adc.o(.text) refers to stm32f4xx_hal_adc.o(.text) for HAL_ADC_Init
    adc.o(.text) refers to stm32f4xx_hal_gpio.o(.text) for HAL_GPIO_Init
    adc.o(.text) refers to adc.o(.bss) for hadc1
    crc.o(.text) refers to stm32f4xx_hal_crc.o(.text) for HAL_CRC_Init
    crc.o(.text) refers to crc.o(.data) for hcrc
    dma.o(.text) refers to stm32f4xx_hal_cortex.o(.text) for HAL_NVIC_SetPriority
    fmc.o(.text) refers to stm32f4xx_hal_nor.o(.text) for HAL_NOR_Init
    fmc.o(.text) refers to stm32f4xx_hal_gpio.o(.text) for HAL_GPIO_Init
    fmc.o(.text) refers to fmc.o(.bss) for hnor1
    fmc.o(.text) refers to fmc.o(.data) for FMC_Initialized
    gpio.o(.text) refers to stm32f4xx_hal_gpio.o(.text) for HAL_GPIO_WritePin
    i2c.o(.text) refers to stm32f4xx_hal_i2c.o(.text) for HAL_I2C_Init
    i2c.o(.text) refers to stm32f4xx_hal_gpio.o(.text) for HAL_GPIO_Init
    i2c.o(.text) refers to i2c.o(.bss) for hi2c2
    main.o(.text) refers to stm32f4xx_hal_rcc.o(.text) for HAL_RCC_OscConfig
    main.o(.text) refers to stm32f4xx_hal_cortex.o(.text) for HAL_SYSTICK_Config
    main.o(.text) refers to stm32f4xx_hal.o(.text) for HAL_Init
    main.o(.text) refers to gpio.o(.text) for MX_GPIO_Init
    main.o(.text) refers to dma.o(.text) for MX_DMA_Init
    main.o(.text) refers to adc.o(.text) for MX_ADC1_Init
    main.o(.text) refers to fmc.o(.text) for MX_FMC_Init
    main.o(.text) refers to i2c.o(.text) for MX_I2C2_Init
    main.o(.text) refers to sdio.o(.text) for MX_SDIO_SD_Init
    main.o(.text) refers to spi.o(.text) for MX_SPI5_Init
    main.o(.text) refers to tim.o(.text) for MX_TIM4_Init
    main.o(.text) refers to usart.o(.text) for MX_USART1_UART_Init
    main.o(.text) refers to usb_device.o(.text) for MX_USB_DEVICE_Init
    main.o(.text) refers to crc.o(.text) for MX_CRC_Init
    main.o(.text) refers to rng.o(.text) for MX_RNG_Init
    main.o(.text) refers to se3_core.o(.text) for device_init
    rng.o(.text) refers to stm32f4xx_hal_rng.o(.text) for HAL_RNG_Init
    rng.o(.text) refers to rng.o(.bss) for hrng
    sdio.o(.text) refers to stm32f4xx_hal_sd.o(.text) for HAL_SD_Init
    sdio.o(.text) refers to stm32f4xx_hal_gpio.o(.text) for HAL_GPIO_Init
    sdio.o(.text) refers to stm32f4xx_hal_dma.o(.text) for HAL_DMA_Init
    sdio.o(.text) refers to stm32f4xx_hal_cortex.o(.text) for HAL_NVIC_SetPriority
    sdio.o(.text) refers to sdio.o(.bss) for hsd
    se3_rand.o(.text) refers to stm32f4xx_hal_rng.o(.text) for HAL_RNG_GenerateRandomNumber
    se3_rand.o(.text) refers to rng.o(.bss) for hrng
    se3_sdio.o(.text) refers to stm32f4xx_hal_sd.o(.text) for HAL_SD_WriteBlocks_DMA
    se3_sdio.o(.text) refers to lludivv7m.o(.text) for __aeabi_uldivmod
    se3_sdio.o(.text) refers to sdio.o(.bss) for hsd
    spi.o(.text) refers to stm32f4xx_hal_spi.o(.text) for HAL_SPI_Init
    spi.o(.text) refers to stm32f4xx_hal_gpio.o(.text) for HAL_GPIO_Init
    spi.o(.text) refers to spi.o(.bss) for hspi5
    stm32f4xx_hal_msp.o(.text) refers to stm32f4xx_hal_cortex.o(.text) for HAL_NVIC_SetPriorityGrouping
    stm32f4xx_it.o(.text) refers to stm32f4xx_hal.o(.text) for HAL_IncTick
    stm32f4xx_it.o(.text) refers to stm32f4xx_hal_cortex.o(.text) for HAL_SYSTICK_IRQHandler
    stm32f4xx_it.o(.text) refers to stm32f4xx_hal_sd.o(.text) for HAL_SD_IRQHandler
    stm32f4xx_it.o(.text) refers to stm32f4xx_hal_dma.o(.text) for HAL_DMA_IRQHandler
    stm32f4xx_it.o(.text) refers to stm32f4xx_hal_pcd.o(.text) for HAL_PCD_IRQHandler
    stm32f4xx_it.o(.text) refers to sdio.o(.bss) for hsd
    stm32f4xx_it.o(.text) refers to usbd_conf.o(.bss) for hpcd_USB_OTG_HS
    system_stm32f4xx.o(.text) refers to system_stm32f4xx.o(.data) for SystemCoreClock
    system_stm32f4xx.o(.text) refers to system_stm32f4xx.o(.constdata) for AHBPrescTable
    tim.o(.text) refers to stm32f4xx_hal_gpio.o(.text) for HAL_GPIO_Init
    tim.o(.text) refers to stm32f4xx_hal_tim.o(.text) for HAL_TIM_PWM_Init
    tim.o(.text) refers to stm32f4xx_hal_tim_ex.o(.text) for HAL_TIMEx_MasterConfigSynchronization
    tim.o(.text) refers to tim.o(.bss) for htim4
    usart.o(.text) refers to stm32f4xx_hal_uart.o(.text) for HAL_UART_Init
    usart.o(.text) refers to stm32f4xx_hal_smartcard.o(.text) for HAL_SMARTCARD_Init
    usart.o(.text) refers to stm32f4xx_hal_gpio.o(.text) for HAL_GPIO_Init
    usart.o(.text) refers to usart.o(.bss) for huart1
    usb_device.o(.text) refers to usbd_core.o(.text) for USBD_Init
    usb_device.o(.text) refers to usbd_msc.o(.text) for USBD_MSC_RegisterStorage
    usb_device.o(.text) refers to usbd_desc.o(.data) for HS_Desc
    usb_device.o(.text) refers to usb_device.o(.bss) for hUsbDeviceHS
    usb_device.o(.text) refers to usbd_msc.o(.data) for USBD_MSC
    usb_device.o(.text) refers to usbd_storage_if.o(.data) for USBD_Storage_Interface_fops_HS
    usbd_conf.o(.text) refers to stm32f4xx_hal_gpio.o(.text) for HAL_GPIO_Init
    usbd_conf.o(.text) refers to stm32f4xx_hal_cortex.o(.text) for HAL_NVIC_SetPriority
    usbd_conf.o(.text) refers to usbd_core.o(.text) for USBD_LL_SetupStage
    usbd_conf.o(.text) refers to stm32f4xx_hal_pcd.o(.text) for HAL_PCD_Init
    usbd_conf.o(.text) refers to stm32f4xx_hal_pcd_ex.o(.text) for HAL_PCDEx_SetRxFiFo
    usbd_conf.o(.text) refers to stm32f4xx_hal.o(.text) for HAL_Delay
    usbd_conf.o(.text) refers to usbd_conf.o(.bss) for hpcd_USB_OTG_HS
    usbd_desc.o(.text) refers to usbd_ctlreq.o(.text) for USBD_GetString
    usbd_desc.o(.text) refers to usbd_desc.o(.data) for USBD_HS_DeviceDesc
    usbd_desc.o(.text) refers to usbd_desc.o(.bss) for USBD_StrDesc
    usbd_desc.o(.data) refers to usbd_desc.o(.text) for USBD_HS_DeviceDescriptor
    usbd_storage_if.o(.text) refers to se3_sdio.o(.text) for secube_sdio_capacity
    usbd_storage_if.o(.text) refers to se3_communication_core.o(.text) for se3_proto_send
    usbd_storage_if.o(.data) refers to usbd_storage_if.o(.text) for STORAGE_Init_HS
    usbd_storage_if.o(.data) refers to usbd_storage_if.o(.constdata) for STORAGE_Inquirydata_HS
    stm32f4xx_hal.o(.text) refers to stm32f4xx_hal_rcc.o(.text) for HAL_RCC_GetHCLKFreq
    stm32f4xx_hal.o(.text) refers to stm32f4xx_hal_cortex.o(.text) for HAL_SYSTICK_Config
    stm32f4xx_hal.o(.text) refers to stm32f4xx_hal_msp.o(.text) for HAL_MspInit
    stm32f4xx_hal.o(.text) refers to stm32f4xx_hal.o(.data) for uwTick
    stm32f4xx_hal_adc.o(.text) refers to adc.o(.text) for HAL_ADC_MspInit
    stm32f4xx_hal_adc.o(.text) refers to stm32f4xx_hal.o(.text) for HAL_GetTick
    stm32f4xx_hal_adc.o(.text) refers to system_stm32f4xx.o(.data) for SystemCoreClock
    stm32f4xx_hal_adc.o(.text) refers to stm32f4xx_hal_adc_ex.o(.text) for HAL_ADCEx_InjectedConvCpltCallback
    stm32f4xx_hal_adc.o(.text) refers to stm32f4xx_hal_dma.o(.text) for HAL_DMA_Start_IT
    stm32f4xx_hal_adc_ex.o(.text) refers to stm32f4xx_hal.o(.text) for HAL_GetTick
    stm32f4xx_hal_adc_ex.o(.text) refers to stm32f4xx_hal_adc.o(.text) for HAL_ADC_ErrorCallback
    stm32f4xx_hal_adc_ex.o(.text) refers to system_stm32f4xx.o(.data) for SystemCoreClock
    stm32f4xx_hal_adc_ex.o(.text) refers to stm32f4xx_hal_dma.o(.text) for HAL_DMA_Start_IT
    stm32f4xx_hal_crc.o(.text) refers to crc.o(.text) for HAL_CRC_MspInit
    stm32f4xx_hal_dma.o(.text) refers to stm32f4xx_hal.o(.text) for HAL_GetTick
    stm32f4xx_hal_dma.o(.text) refers to stm32f4xx_hal_dma.o(.constdata) for flagBitshiftOffset
    stm32f4xx_hal_flash.o(.text) refers to stm32f4xx_hal.o(.text) for HAL_GetTick
    stm32f4xx_hal_flash.o(.text) refers to stm32f4xx_hal_flash_ex.o(.text) for FLASH_Erase_Sector
    stm32f4xx_hal_flash.o(.text) refers to stm32f4xx_hal_flash.o(.bss) for pFlash
    stm32f4xx_hal_flash_ex.o(.text) refers to stm32f4xx_hal_flash.o(.text) for FLASH_WaitForLastOperation
    stm32f4xx_hal_flash_ex.o(.text) refers to stm32f4xx_hal_flash.o(.bss) for pFlash
    stm32f4xx_hal_i2c.o(.text) refers to i2c.o(.text) for HAL_I2C_MspInit
    stm32f4xx_hal_i2c.o(.text) refers to stm32f4xx_hal_rcc.o(.text) for HAL_RCC_GetPCLK1Freq
    stm32f4xx_hal_i2c.o(.text) refers to stm32f4xx_hal.o(.text) for HAL_GetTick
    stm32f4xx_hal_i2c.o(.text) refers to stm32f4xx_hal_dma.o(.text) for HAL_DMA_Start_IT
    stm32f4xx_hal_nor.o(.text) refers to fmc.o(.text) for HAL_NOR_MspInit
    stm32f4xx_hal_nor.o(.text) refers to stm32f4xx_ll_fmc.o(.text) for FMC_NORSRAM_Init
    stm32f4xx_hal_nor.o(.text) refers to stm32f4xx_hal.o(.text) for HAL_GetTick
    stm32f4xx_hal_pcd.o(.text) refers to usbd_conf.o(.text) for HAL_PCD_MspInit
    stm32f4xx_hal_pcd.o(.text) refers to stm32f4xx_ll_usb.o(.text) for USB_DisableGlobalInt
    stm32f4xx_hal_pcd.o(.text) refers to rt_memcpy_w.o(.text) for __aeabi_memcpy4
    stm32f4xx_hal_pwr_ex.o(.text) refers to stm32f4xx_hal.o(.text) for HAL_GetTick
    stm32f4xx_hal_rcc.o(.text) refers to stm32f4xx_hal.o(.text) for HAL_GetTick
    stm32f4xx_hal_rcc.o(.text) refers to stm32f4xx_hal_gpio.o(.text) for HAL_GPIO_Init
    stm32f4xx_hal_rcc.o(.text) refers to stm32f4xx_hal_rcc.o(.constdata) for APBAHBPrescTable
    stm32f4xx_hal_rcc.o(.text) refers to system_stm32f4xx.o(.data) for SystemCoreClock
    stm32f4xx_hal_rcc_ex.o(.text) refers to stm32f4xx_hal.o(.text) for HAL_GetTick
    stm32f4xx_hal_rng.o(.text) refers to rng.o(.text) for HAL_RNG_MspInit
    stm32f4xx_hal_rng.o(.text) refers to stm32f4xx_hal.o(.text) for HAL_GetTick
    stm32f4xx_hal_sd.o(.text) refers to stm32f4xx_ll_sdmmc.o(.text) for SDIO_GetCommandResponse
    stm32f4xx_hal_sd.o(.text) refers to stm32f4xx_hal.o(.text) for HAL_Delay
    stm32f4xx_hal_sd.o(.text) refers to sdio.o(.text) for HAL_SD_MspInit
    stm32f4xx_hal_sd.o(.text) refers to lludivv7m.o(.text) for __aeabi_uldivmod
    stm32f4xx_hal_sd.o(.text) refers to stm32f4xx_hal_dma.o(.text) for HAL_DMA_Abort
    stm32f4xx_hal_sd.o(.text) refers to rt_memclr_w.o(.text) for __aeabi_memclr4
    stm32f4xx_hal_smartcard.o(.text) refers to stm32f4xx_hal_rcc.o(.text) for HAL_RCC_GetPCLK2Freq
    stm32f4xx_hal_smartcard.o(.text) refers to usart.o(.text) for HAL_SMARTCARD_MspInit
    stm32f4xx_hal_smartcard.o(.text) refers to stm32f4xx_hal.o(.text) for HAL_GetTick
    stm32f4xx_hal_smartcard.o(.text) refers to stm32f4xx_hal_dma.o(.text) for HAL_DMA_Start_IT
    stm32f4xx_hal_spi.o(.text) refers to spi.o(.text) for HAL_SPI_MspInit
    stm32f4xx_hal_spi.o(.text) refers to stm32f4xx_hal.o(.text) for HAL_GetTick
    stm32f4xx_hal_spi.o(.text) refers to stm32f4xx_hal_dma.o(.text) for HAL_DMA_Start_IT
    stm32f4xx_hal_tim.o(.text) refers to stm32f4xx_hal_dma.o(.text) for HAL_DMA_Start_IT
    stm32f4xx_hal_tim.o(.text) refers to tim.o(.text) for HAL_TIM_PWM_MspInit
    stm32f4xx_hal_tim.o(.text) refers to stm32f4xx_hal_tim_ex.o(.text) for HAL_TIMEx_BreakCallback
    stm32f4xx_hal_tim_ex.o(.text) refers to stm32f4xx_hal_tim.o(.text) for TIM_Base_SetConfig
    stm32f4xx_hal_tim_ex.o(.text) refers to stm32f4xx_hal_dma.o(.text) for HAL_DMA_Start_IT
    stm32f4xx_hal_uart.o(.text) refers to stm32f4xx_hal_rcc.o(.text) for HAL_RCC_GetPCLK2Freq
    stm32f4xx_hal_uart.o(.text) refers to usart.o(.text) for HAL_UART_MspInit
    stm32f4xx_hal_uart.o(.text) refers to stm32f4xx_hal.o(.text) for HAL_GetTick
    stm32f4xx_hal_uart.o(.text) refers to stm32f4xx_hal_dma.o(.text) for HAL_DMA_Start_IT
    stm32f4xx_ll_fmc.o(.text) refers to stm32f4xx_hal.o(.text) for HAL_GetTick
    stm32f4xx_ll_usb.o(.text) refers to stm32f4xx_hal.o(.text) for HAL_Delay
    stm32f4xx_ll_usb.o(.text) refers to stm32f4xx_ll_usb.o(.data) for debug
    usbd_core.o(.text) refers to usbd_conf.o(.text) for USBD_LL_Init
    usbd_core.o(.text) refers to usbd_ctlreq.o(.text) for USBD_ParseSetupRequest
    usbd_core.o(.text) refers to usbd_ioreq.o(.text) for USBD_CtlContinueRx
    usbd_ctlreq.o(.text) refers to usbd_conf.o(.text) for USBD_LL_StallEP
    usbd_ctlreq.o(.text) refers to usbd_ioreq.o(.text) for USBD_CtlSendStatus
    usbd_ctlreq.o(.text) refers to usbd_core.o(.text) for USBD_SetClassConfig
    usbd_ctlreq.o(.text) refers to usbd_ctlreq.o(.data) for cfgidx
    usbd_ioreq.o(.text) refers to usbd_conf.o(.text) for USBD_LL_Transmit
    usbd_msc.o(.text) refers to usbd_conf.o(.text) for USBD_LL_OpenEP
    usbd_msc.o(.text) refers to h1_alloc.o(.text) for malloc
    usbd_msc.o(.text) refers to usbd_msc_bot.o(.text) for MSC_BOT_Init
    usbd_msc.o(.text) refers to h1_free.o(.text) for free
    usbd_msc.o(.text) refers to usbd_ioreq.o(.text) for USBD_CtlSendData
    usbd_msc.o(.text) refers to usbd_ctlreq.o(.text) for USBD_CtlError
    usbd_msc.o(.text) refers to usbd_msc.o(.data) for USBD_MSC_CfgHSDesc
    usbd_msc.o(.data) refers to usbd_msc.o(.text) for USBD_MSC_Init
    usbd_msc_bot.o(.text) refers to usbd_conf.o(.text) for USBD_LL_FlushEP
    usbd_msc_bot.o(.text) refers to usbd_msc_scsi.o(.text) for SCSI_ProcessCmd
    usbd_msc_scsi.o(.text) refers to usbd_msc_bot.o(.text) for MSC_BOT_SendCSW
    usbd_msc_scsi.o(.text) refers to usbd_conf.o(.text) for USBD_LL_PrepareReceive
    usbd_msc_scsi.o(.text) refers to usbd_msc_data.o(.constdata) for MSC_Mode_Sense10_data
    malloc.o(.text) refers (Special) to hguard.o(.text) for __heap$guard
    malloc.o(.text) refers (Special) to init_alloc.o(.text) for _init_alloc
    malloc.o(.text) refers to rt_heap_descriptor_intlibspace.o(.text) for __rt_heap_descriptor
    malloc.o(.text) refers to heapstubs.o(.text) for __Heap_Alloc
    free.o(.text) refers (Special) to hguard.o(.text) for __heap$guard
    free.o(.text) refers to rt_heap_descriptor_intlibspace.o(.text) for __rt_heap_descriptor
    free.o(.text) refers to heapstubs.o(.text) for __Heap_Free
    h1_alloc.o(.text) refers (Special) to h1_init.o(.text) for __Heap_Initialize
    h1_alloc.o(.text) refers to rt_heap_descriptor_intlibspace.o(.text) for __rt_heap_descriptor
    h1_alloc.o(.text) refers to init_alloc.o(.text) for __Heap_Full
    h1_free.o(.text) refers to rt_heap_descriptor_intlibspace.o(.text) for __rt_heap_descriptor
    h1_alloc_mt.o(.text) refers (Special) to h1_init.o(.text) for __Heap_Initialize
    h1_alloc_mt.o(.text) refers to init_alloc.o(.text) for __Heap_Full
    h1_alloc_mt.o(.text) refers to rt_heap_descriptor_intlibspace.o(.text) for __rt_heap_descriptor
    h1_free_mt.o(.text) refers to rt_heap_descriptor_intlibspace.o(.text) for __rt_heap_descriptor
    heap2.o(i._FDIterate) refers to heap2.o(.conststring) for .conststring
    heap2.o(i.___Heap_ProvideMemory$realtime) refers to fdtree.o(i._FDTree_Delete) for _FDTree_Delete
    heap2.o(i.___Heap_ProvideMemory$realtime) refers to fdtree.o(i._FDTree_Insert) for _FDTree_Insert
    heap2.o(i.___Heap_Stats$realtime) refers to heap2.o(i._Heap2_StatsIterate) for _Heap2_StatsIterate
    heap2.o(i.___Heap_Valid$realtime) refers to heap2.o(i._FDIterate) for _FDIterate
    heap2.o(i.___Heap_Valid$realtime) refers to heap2.o(.conststring) for .conststring
    heap2.o(i._free$realtime) refers to rt_heap_descriptor_intlibspace.o(.text) for __rt_heap_descriptor
    heap2.o(i._free$realtime) refers to fdtree.o(i._FDTree_Delete) for _FDTree_Delete
    heap2.o(i._free$realtime) refers to fdtree.o(i._FDTree_Insert) for _FDTree_Insert
    heap2.o(i._malloc$realtime) refers to rt_heap_descriptor_intlibspace.o(.text) for __rt_heap_descriptor
    heap2.o(i._malloc$realtime) refers to fdtree.o(i._FDTree_FindFirst) for _FDTree_FindFirst
    heap2.o(i._malloc$realtime) refers to init_alloc.o(.text) for __Heap_Full
    heap2.o(i._malloc$realtime) refers to fdtree.o(i._FDTree_RemoveNode) for _FDTree_RemoveNode
    heap2.o(i._malloc$realtime) refers to fdtree.o(i._FDTree_Insert) for _FDTree_Insert
    heap2.o(i._posix_memalign$realtime) refers to rt_heap_descriptor_intlibspace.o(.text) for __rt_heap_descriptor
    heap2.o(i._posix_memalign$realtime) refers to fdtree.o(i._FDTree_FindFirst) for _FDTree_FindFirst
    heap2.o(i._posix_memalign$realtime) refers to init_alloc.o(.text) for __Heap_Full
    heap2.o(i._posix_memalign$realtime) refers to fdtree.o(i._FDTree_RemoveNode) for _FDTree_RemoveNode
    heap2.o(i._posix_memalign$realtime) refers to fdtree.o(i._FDTree_Insert) for _FDTree_Insert
    heap2.o(i._realloc$realtime) refers to rt_heap_descriptor_intlibspace.o(.text) for __rt_heap_descriptor
    heap2.o(i._realloc$realtime) refers to fdtree.o(i._FDTree_Insert) for _FDTree_Insert
    heap2.o(i._realloc$realtime) refers to h1_free.o(.text) for free
    heap2.o(i._realloc$realtime) refers to h1_alloc.o(.text) for malloc
    heap2.o(i._realloc$realtime) refers to fdtree.o(i._FDTree_Delete) for _FDTree_Delete
    heap2.o(i._realloc$realtime) refers to rt_memcpy_w.o(.text) for __aeabi_memcpy4
    heap2mt.o(i._FDIterate) refers to heap2mt.o(.conststring) for .conststring
    heap2mt.o(i.___Heap_Initialize$realtime$concurrent) refers to mutex_dummy.o(.text) for _mutex_initialize
    heap2mt.o(i.___Heap_ProvideMemory$realtime$concurrent) refers to fdtree.o(i._FDTree_Delete) for _FDTree_Delete
    heap2mt.o(i.___Heap_ProvideMemory$realtime$concurrent) refers to fdtree.o(i._FDTree_Insert) for _FDTree_Insert
    heap2mt.o(i.___Heap_Stats$realtime$concurrent) refers to heap2mt.o(i._Heap2_StatsIterate) for _Heap2_StatsIterate
    heap2mt.o(i.___Heap_Valid$realtime$concurrent) refers to heap2mt.o(i._FDIterate) for _FDIterate
    heap2mt.o(i.___Heap_Valid$realtime$concurrent) refers to heap2mt.o(.conststring) for .conststring
    heap2mt.o(i._free$realtime$concurrent) refers to rt_heap_descriptor_intlibspace.o(.text) for __rt_heap_descriptor
    heap2mt.o(i._free$realtime$concurrent) refers to fdtree.o(i._FDTree_Delete) for _FDTree_Delete
    heap2mt.o(i._free$realtime$concurrent) refers to fdtree.o(i._FDTree_Insert) for _FDTree_Insert
    heap2mt.o(i._malloc$realtime$concurrent) refers to rt_heap_descriptor_intlibspace.o(.text) for __rt_heap_descriptor
    heap2mt.o(i._malloc$realtime$concurrent) refers to fdtree.o(i._FDTree_FindFirst) for _FDTree_FindFirst
    heap2mt.o(i._malloc$realtime$concurrent) refers to init_alloc.o(.text) for __Heap_Full
    heap2mt.o(i._malloc$realtime$concurrent) refers to fdtree.o(i._FDTree_RemoveNode) for _FDTree_RemoveNode
    heap2mt.o(i._malloc$realtime$concurrent) refers to fdtree.o(i._FDTree_Insert) for _FDTree_Insert
    heap2mt.o(i._posix_memalign$realtime$concurrent) refers to rt_heap_descriptor_intlibspace.o(.text) for __rt_heap_descriptor
    heap2mt.o(i._posix_memalign$realtime$concurrent) refers to fdtree.o(i._FDTree_FindFirst) for _FDTree_FindFirst
    heap2mt.o(i._posix_memalign$realtime$concurrent) refers to init_alloc.o(.text) for __Heap_Full
    heap2mt.o(i._posix_memalign$realtime$concurrent) refers to fdtree.o(i._FDTree_RemoveNode) for _FDTree_RemoveNode
    heap2mt.o(i._posix_memalign$realtime$concurrent) refers to fdtree.o(i._FDTree_Insert) for _FDTree_Insert
    heap2mt.o(i._realloc$realtime$concurrent) refers to rt_heap_descriptor_intlibspace.o(.text) for __rt_heap_descriptor
    heap2mt.o(i._realloc$realtime$concurrent) refers to fdtree.o(i._FDTree_Insert) for _FDTree_Insert
    heap2mt.o(i._realloc$realtime$concurrent) refers to h1_free.o(.text) for free
    heap2mt.o(i._realloc$realtime$concurrent) refers to h1_alloc.o(.text) for malloc
    heap2mt.o(i._realloc$realtime$concurrent) refers to fdtree.o(i._FDTree_Delete) for _FDTree_Delete
    heap2mt.o(i._realloc$realtime$concurrent) refers to rt_memcpy_w.o(.text) for __aeabi_memcpy4
    rt_memcpy_v6.o(.text) refers to rt_memcpy_w.o(.text) for __aeabi_memcpy4
    rt_memmove_v6.o(.text) refers to rt_memcpy_v6.o(.text) for __aeabi_memcpy
    rt_memmove_v6.o(.text) refers to rt_memmove_w.o(.text) for __memmove_aligned
    aeabi_memset.o(.text) refers to rt_memclr.o(.text) for _memset
    rt_memclr.o(.text) refers to rt_memclr_w.o(.text) for _memset_w
    __main.o(!!!main) refers to __rtentry.o(.ARM.Collect$$rtentry$$00000000) for __rt_entry
    __rtentry.o(.ARM.Collect$$rtentry$$00000000) refers (Special) to __rtentry2.o(.ARM.Collect$$rtentry$$0000000A) for __rt_entry_li
    __rtentry.o(.ARM.Collect$$rtentry$$00000000) refers (Special) to __rtentry2.o(.ARM.Collect$$rtentry$$0000000D) for __rt_entry_main
    __rtentry.o(.ARM.Collect$$rtentry$$00000000) refers (Special) to __rtentry2.o(.ARM.Collect$$rtentry$$0000000C) for __rt_entry_postli_1
    __rtentry.o(.ARM.Collect$$rtentry$$00000000) refers (Special) to __rtentry2.o(.ARM.Collect$$rtentry$$00000009) for __rt_entry_postsh_1
    __rtentry.o(.ARM.Collect$$rtentry$$00000000) refers (Special) to __rtentry2.o(.ARM.Collect$$rtentry$$00000002) for __rt_entry_presh_1
    __rtentry.o(.ARM.Collect$$rtentry$$00000000) refers (Special) to __rtentry4.o(.ARM.Collect$$rtentry$$00000004) for __rt_entry_sh
    aeabi_ldiv0_sigfpe.o(.text) refers to rt_div0.o(.text) for __rt_div0
    rt_heap_descriptor.o(.text) refers to rt_heap_descriptor.o(.bss) for __rt_heap_descriptor_data
    rt_heap_descriptor_intlibspace.o(.text) refers to libspace.o(.bss) for __libspace_start
    init_alloc.o(.text) refers (Special) to hguard.o(.text) for __heap$guard
    init_alloc.o(.text) refers (Special) to libinit2.o(.ARM.Collect$$libinit$$00000005) for __rt_lib_init_heap_2
    init_alloc.o(.text) refers (Special) to maybetermalloc1.o(.emb_text) for _maybe_terminate_alloc
    init_alloc.o(.text) refers to h1_extend.o(.text) for __Heap_ProvideMemory
    init_alloc.o(.text) refers to defsig_rtmem_outer.o(.text) for __rt_SIGRTMEM
    init_alloc.o(.text) refers to rt_heap_descriptor_intlibspace.o(.text) for __rt_heap_descriptor
    init_alloc.o(.text) refers to h1_init.o(.text) for __Heap_Initialize
    h1_init_mt.o(.text) refers to mutex_dummy.o(.text) for _mutex_initialize
    rt_memmove_w.o(.text) refers to rt_memcpy_w.o(.text) for __aeabi_memcpy4
    _get_argv.o(.text) refers (Special) to hrguard.o(.text) for __heap_region$guard
    _get_argv.o(.text) refers to h1_alloc.o(.text) for malloc
    _get_argv.o(.text) refers to defsig_rtmem_outer.o(.text) for __rt_SIGRTMEM
    _get_argv.o(.text) refers to sys_command.o(.text) for _sys_command_string
    libinit2.o(.ARM.Collect$$libinit$$00000001) refers to fpinit.o(x$fpl$fpinit) for _fp_init
    libinit2.o(.ARM.Collect$$libinit$$00000005) refers (Weak) to init_alloc.o(.text) for _init_alloc
    libinit2.o(.ARM.Collect$$libinit$$00000010) refers to libinit2.o(.ARM.Collect$$libinit$$0000000F) for .ARM.Collect$$libinit$$0000000F
    libinit2.o(.ARM.Collect$$libinit$$00000012) refers to libinit2.o(.ARM.Collect$$libinit$$0000000F) for .ARM.Collect$$libinit$$0000000F
    libinit2.o(.ARM.Collect$$libinit$$00000014) refers to libinit2.o(.ARM.Collect$$libinit$$0000000F) for .ARM.Collect$$libinit$$0000000F
    libinit2.o(.ARM.Collect$$libinit$$00000016) refers to libinit2.o(.ARM.Collect$$libinit$$0000000F) for .ARM.Collect$$libinit$$0000000F
    libinit2.o(.ARM.Collect$$libinit$$00000018) refers to libinit2.o(.ARM.Collect$$libinit$$0000000F) for .ARM.Collect$$libinit$$0000000F
    libinit2.o(.ARM.Collect$$libinit$$00000026) refers to argv_veneer.o(.emb_text) for __ARM_argv_veneer
    libinit2.o(.ARM.Collect$$libinit$$00000027) refers to argv_veneer.o(.emb_text) for __ARM_argv_veneer
    sys_command.o(.text) refers (Special) to use_no_semi.o(.text) for __I$use$semihosting
    sys_command.o(.text) refers (Special) to indicate_semi.o(.text) for __semihosting_library_function
    libspace.o(.text) refers to libspace.o(.bss) for __libspace_start
    __rtentry2.o(.ARM.Collect$$rtentry$$00000008) refers to boardinit2.o(.text) for _platform_post_stackheap_init
    __rtentry2.o(.ARM.Collect$$rtentry$$0000000A) refers to libinit.o(.ARM.Collect$$libinit$$00000000) for __rt_lib_init
    __rtentry2.o(.ARM.Collect$$rtentry$$0000000B) refers to boardinit3.o(.text) for _platform_post_lib_init
    __rtentry2.o(.ARM.Collect$$rtentry$$0000000D) refers to main.o(.text) for main
    __rtentry2.o(.ARM.Collect$$rtentry$$0000000D) refers to exit.o(.text) for exit
    __rtentry2.o(.ARM.exidx) refers to __rtentry2.o(.ARM.Collect$$rtentry$$00000001) for .ARM.Collect$$rtentry$$00000001
    __rtentry2.o(.ARM.exidx) refers to __rtentry2.o(.ARM.Collect$$rtentry$$00000008) for .ARM.Collect$$rtentry$$00000008
    __rtentry2.o(.ARM.exidx) refers to __rtentry2.o(.ARM.Collect$$rtentry$$0000000A) for .ARM.Collect$$rtentry$$0000000A
    __rtentry2.o(.ARM.exidx) refers to __rtentry2.o(.ARM.Collect$$rtentry$$0000000B) for .ARM.Collect$$rtentry$$0000000B
    __rtentry2.o(.ARM.exidx) refers to __rtentry2.o(.ARM.Collect$$rtentry$$0000000D) for .ARM.Collect$$rtentry$$0000000D
    __rtentry4.o(.ARM.Collect$$rtentry$$00000004) refers to sys_stackheap_outer.o(.text) for __user_setup_stackheap
    __rtentry4.o(.ARM.exidx) refers to __rtentry4.o(.ARM.Collect$$rtentry$$00000004) for .ARM.Collect$$rtentry$$00000004
    rt_div0.o(.text) refers to defsig_fpe_outer.o(.text) for __rt_SIGFPE
    maybetermalloc2.o(.emb_text) refers (Special) to term_alloc.o(.text) for _terminate_alloc
    h1_extend.o(.text) refers to h1_free.o(.text) for free
    h1_extend_mt.o(.text) refers to h1_free_mt.o(.text) for _free_internal
    defsig_rtmem_outer.o(.text) refers to defsig_rtmem_inner.o(.text) for __rt_SIGRTMEM_inner
    defsig_rtmem_outer.o(.text) refers to defsig_exit.o(.text) for __sig_exit
    defsig_rtmem_formal.o(.text) refers to rt_raise.o(.text) for __rt_raise
    heapauxa.o(.text) refers to heapauxa.o(.data) for .data
    argv_veneer.o(.emb_text) refers to no_argv.o(.text) for __ARM_get_argv
    sys_stackheap_outer.o(.text) refers to libspace.o(.text) for __user_perproc_libspace
    sys_stackheap_outer.o(.text) refers to startup_stm32f429nihx.o(.text) for __user_initial_stackheap
    rt_raise.o(.text) refers to __raise.o(.text) for __raise
    rt_raise.o(.text) refers to sys_exit.o(.text) for _sys_exit
    term_alloc.o(.text) refers (Special) to libshutdown2.o(.ARM.Collect$$libshutdown$$00000010) for __rt_lib_shutdown_heap_2
    term_alloc.o(.text) refers to rt_heap_descriptor_intlibspace.o(.text) for __rt_heap_descriptor
    term_alloc.o(.text) refers to h1_final.o(.text) for __Heap_Finalize
    exit.o(.text) refers to rtexit.o(.ARM.Collect$$rtexit$$00000000) for __rt_exit
    defsig_exit.o(.text) refers to sys_exit.o(.text) for _sys_exit
    defsig_fpe_outer.o(.text) refers to defsig_fpe_inner.o(.text) for __rt_SIGFPE_inner
    defsig_fpe_outer.o(.text) refers to defsig_exit.o(.text) for __sig_exit
    defsig_fpe_formal.o(.text) refers to rt_raise.o(.text) for __rt_raise
    defsig_rtmem_inner.o(.text) refers to defsig_general.o(.text) for __default_signal_display
    _get_argv_nomalloc.o(.text) refers (Special) to hrguard.o(.text) for __heap_region$guard
    _get_argv_nomalloc.o(.text) refers to defsig_rtmem_outer.o(.text) for __rt_SIGRTMEM
    _get_argv_nomalloc.o(.text) refers to sys_command.o(.text) for _sys_command_string
    libinit.o(.ARM.Collect$$libinit$$00000000) refers (Special) to libinit2.o(.ARM.Collect$$libinit$$0000002E) for __rt_lib_init_alloca_1
    libinit.o(.ARM.Collect$$libinit$$00000000) refers (Special) to libinit2.o(.ARM.Collect$$libinit$$0000002C) for __rt_lib_init_argv_1
    libinit.o(.ARM.Collect$$libinit$$00000000) refers (Special) to libinit2.o(.ARM.Collect$$libinit$$0000001B) for __rt_lib_init_atexit_1
    libinit.o(.ARM.Collect$$libinit$$00000000) refers (Special) to libinit2.o(.ARM.Collect$$libinit$$00000021) for __rt_lib_init_clock_1
    libinit.o(.ARM.Collect$$libinit$$00000000) refers (Special) to libinit2.o(.ARM.Collect$$libinit$$00000032) for __rt_lib_init_cpp_1
    libinit.o(.ARM.Collect$$libinit$$00000000) refers (Special) to libinit2.o(.ARM.Collect$$libinit$$00000030) for __rt_lib_init_exceptions_1
    libinit.o(.ARM.Collect$$libinit$$00000000) refers (Special) to libinit2.o(.ARM.Collect$$libinit$$00000001) for __rt_lib_init_fp_1
    libinit.o(.ARM.Collect$$libinit$$00000000) refers (Special) to libinit2.o(.ARM.Collect$$libinit$$0000001F) for __rt_lib_init_fp_trap_1
    libinit.o(.ARM.Collect$$libinit$$00000000) refers (Special) to libinit2.o(.ARM.Collect$$libinit$$00000023) for __rt_lib_init_getenv_1
    libinit.o(.ARM.Collect$$libinit$$00000000) refers (Special) to libinit2.o(.ARM.Collect$$libinit$$0000000A) for __rt_lib_init_heap_1
    libinit.o(.ARM.Collect$$libinit$$00000000) refers (Special) to libinit2.o(.ARM.Collect$$libinit$$00000011) for __rt_lib_init_lc_collate_1
    libinit.o(.ARM.Collect$$libinit$$00000000) refers (Special) to libinit2.o(.ARM.Collect$$libinit$$00000013) for __rt_lib_init_lc_ctype_1
    libinit.o(.ARM.Collect$$libinit$$00000000) refers (Special) to libinit2.o(.ARM.Collect$$libinit$$00000015) for __rt_lib_init_lc_monetary_1
    libinit.o(.ARM.Collect$$libinit$$00000000) refers (Special) to libinit2.o(.ARM.Collect$$libinit$$00000017) for __rt_lib_init_lc_numeric_1
    libinit.o(.ARM.Collect$$libinit$$00000000) refers (Special) to libinit2.o(.ARM.Collect$$libinit$$00000019) for __rt_lib_init_lc_time_1
    libinit.o(.ARM.Collect$$libinit$$00000000) refers (Special) to libinit2.o(.ARM.Collect$$libinit$$00000004) for __rt_lib_init_preinit_1
    libinit.o(.ARM.Collect$$libinit$$00000000) refers (Special) to libinit2.o(.ARM.Collect$$libinit$$0000000E) for __rt_lib_init_rand_1
    libinit.o(.ARM.Collect$$libinit$$00000000) refers (Special) to libinit2.o(.ARM.Collect$$libinit$$00000033) for __rt_lib_init_return
    libinit.o(.ARM.Collect$$libinit$$00000000) refers (Special) to libinit2.o(.ARM.Collect$$libinit$$0000001D) for __rt_lib_init_signal_1
    libinit.o(.ARM.Collect$$libinit$$00000000) refers (Special) to libinit2.o(.ARM.Collect$$libinit$$00000025) for __rt_lib_init_stdio_1
    libinit.o(.ARM.Collect$$libinit$$00000000) refers (Special) to libinit2.o(.ARM.Collect$$libinit$$0000000C) for __rt_lib_init_user_alloc_1
    sys_exit.o(.text) refers (Special) to use_no_semi.o(.text) for __I$use$semihosting
    sys_exit.o(.text) refers (Special) to indicate_semi.o(.text) for __semihosting_library_function
    rtexit.o(.ARM.Collect$$rtexit$$00000000) refers (Special) to rtexit2.o(.ARM.Collect$$rtexit$$00000004) for __rt_exit_exit
    rtexit.o(.ARM.Collect$$rtexit$$00000000) refers (Special) to rtexit2.o(.ARM.Collect$$rtexit$$00000003) for __rt_exit_ls
    rtexit.o(.ARM.Collect$$rtexit$$00000000) refers (Special) to rtexit2.o(.ARM.Collect$$rtexit$$00000002) for __rt_exit_prels_1
    rtexit.o(.ARM.exidx) refers (Special) to rtexit2.o(.ARM.Collect$$rtexit$$00000004) for __rt_exit_exit
    rtexit.o(.ARM.exidx) refers (Special) to rtexit2.o(.ARM.Collect$$rtexit$$00000003) for __rt_exit_ls
    rtexit.o(.ARM.exidx) refers (Special) to rtexit2.o(.ARM.Collect$$rtexit$$00000002) for __rt_exit_prels_1
    rtexit.o(.ARM.exidx) refers to rtexit.o(.ARM.Collect$$rtexit$$00000000) for .ARM.Collect$$rtexit$$00000000
    __raise.o(.text) refers to defsig.o(CL$$defsig) for __default_signal_handler
    defsig_general.o(.text) refers to sys_wrch.o(.text) for _ttywrch
    defsig_fpe_inner.o(.text) refers to defsig_general.o(.text) for __default_signal_display
    libshutdown2.o(.ARM.Collect$$libshutdown$$0000000F) refers (Weak) to term_alloc.o(.text) for _terminate_alloc
    sys_wrch.o(.text) refers (Special) to use_no_semi.o(.text) for __I$use$semihosting
    sys_wrch.o(.text) refers (Special) to indicate_semi.o(.text) for __semihosting_library_function
    rtexit2.o(.ARM.Collect$$rtexit$$00000003) refers to libshutdown.o(.ARM.Collect$$libshutdown$$00000000) for __rt_lib_shutdown
    rtexit2.o(.ARM.Collect$$rtexit$$00000004) refers to sys_exit.o(.text) for _sys_exit
    rtexit2.o(.ARM.exidx) refers to rtexit2.o(.ARM.Collect$$rtexit$$00000001) for .ARM.Collect$$rtexit$$00000001
    rtexit2.o(.ARM.exidx) refers to rtexit2.o(.ARM.Collect$$rtexit$$00000003) for .ARM.Collect$$rtexit$$00000003
    rtexit2.o(.ARM.exidx) refers to rtexit2.o(.ARM.Collect$$rtexit$$00000004) for .ARM.Collect$$rtexit$$00000004
    defsig.o(CL$$defsig) refers to defsig_fpe_inner.o(.text) for __rt_SIGFPE_inner
    defsig.o(CL$$defsig) refers to defsig_rtmem_inner.o(.text) for __rt_SIGRTMEM_inner
    defsig_abrt_inner.o(.text) refers to defsig_general.o(.text) for __default_signal_display
    defsig_rtred_inner.o(.text) refers to defsig_general.o(.text) for __default_signal_display
    defsig_stak_inner.o(.text) refers to defsig_general.o(.text) for __default_signal_display
    defsig_pvfn_inner.o(.text) refers to defsig_general.o(.text) for __default_signal_display
    defsig_cppl_inner.o(.text) refers to defsig_general.o(.text) for __default_signal_display
    defsig_segv_inner.o(.text) refers to defsig_general.o(.text) for __default_signal_display
    defsig_other.o(.text) refers to defsig_general.o(.text) for __default_signal_display
    libshutdown.o(.ARM.Collect$$libshutdown$$00000000) refers (Special) to libshutdown2.o(.ARM.Collect$$libshutdown$$00000004) for __rt_lib_shutdown_cpp_1
    libshutdown.o(.ARM.Collect$$libshutdown$$00000000) refers (Special) to libshutdown2.o(.ARM.Collect$$libshutdown$$00000002) for __rt_lib_shutdown_fini_1
    libshutdown.o(.ARM.Collect$$libshutdown$$00000000) refers (Special) to libshutdown2.o(.ARM.Collect$$libshutdown$$00000009) for __rt_lib_shutdown_fp_trap_1
    libshutdown.o(.ARM.Collect$$libshutdown$$00000000) refers (Special) to libshutdown2.o(.ARM.Collect$$libshutdown$$00000011) for __rt_lib_shutdown_heap_1
    libshutdown.o(.ARM.Collect$$libshutdown$$00000000) refers (Special) to libshutdown2.o(.ARM.Collect$$libshutdown$$00000012) for __rt_lib_shutdown_return
    libshutdown.o(.ARM.Collect$$libshutdown$$00000000) refers (Special) to libshutdown2.o(.ARM.Collect$$libshutdown$$0000000C) for __rt_lib_shutdown_signal_1
    libshutdown.o(.ARM.Collect$$libshutdown$$00000000) refers (Special) to libshutdown2.o(.ARM.Collect$$libshutdown$$00000006) for __rt_lib_shutdown_stdio_1
    libshutdown.o(.ARM.Collect$$libshutdown$$00000000) refers (Special) to libshutdown2.o(.ARM.Collect$$libshutdown$$0000000E) for __rt_lib_shutdown_user_alloc_1


==============================================================================

Removing Unused input sections from the image.

    Removing crc16.o(.text), (44 bytes).
    Removing crc16.o(.constdata), (512 bytes).
    Removing se3_algo_aes.o(.rev16_text), (4 bytes).
    Removing se3_algo_aes.o(.revsh_text), (4 bytes).
    Removing se3_algo_aes.o(.rrx_text), (6 bytes).
    Removing se3_algo_aes256hmacsha256.o(.rev16_text), (4 bytes).
    Removing se3_algo_aes256hmacsha256.o(.revsh_text), (4 bytes).
    Removing se3_algo_aes256hmacsha256.o(.rrx_text), (6 bytes).
    Removing se3_algo_aes256hmacsha256.o(.text), (612 bytes).
    Removing se3_algo_aes256hmacsha256.o(.constdata), (32 bytes).
    Removing se3_algo_aeshmacsha256s.o(.rev16_text), (4 bytes).
    Removing se3_algo_aeshmacsha256s.o(.revsh_text), (4 bytes).
    Removing se3_algo_aeshmacsha256s.o(.rrx_text), (6 bytes).
    Removing se3_algo_hmacsha256.o(.rev16_text), (4 bytes).
    Removing se3_algo_hmacsha256.o(.revsh_text), (4 bytes).
    Removing se3_algo_hmacsha256.o(.rrx_text), (6 bytes).
    Removing se3_algo_sha256.o(.rev16_text), (4 bytes).
    Removing se3_algo_sha256.o(.revsh_text), (4 bytes).
    Removing se3_algo_sha256.o(.rrx_text), (6 bytes).
    Removing se3_dispatcher_core.o(.rev16_text), (4 bytes).
    Removing se3_dispatcher_core.o(.revsh_text), (4 bytes).
    Removing se3_dispatcher_core.o(.rrx_text), (6 bytes).
    Removing se3_core.o(.rev16_text), (4 bytes).
    Removing se3_core.o(.revsh_text), (4 bytes).
    Removing se3_core.o(.rrx_text), (6 bytes).
    Removing se3_core.o(.data), (192 bytes).
    Removing se3_flash.o(.rev16_text), (4 bytes).
    Removing se3_flash.o(.revsh_text), (4 bytes).
    Removing se3_flash.o(.rrx_text), (6 bytes).
    Removing se3_keys.o(.rev16_text), (4 bytes).
    Removing se3_keys.o(.revsh_text), (4 bytes).
    Removing se3_keys.o(.rrx_text), (6 bytes).
    Removing se3_security_core.o(.rev16_text), (4 bytes).
    Removing se3_security_core.o(.revsh_text), (4 bytes).
    Removing se3_security_core.o(.rrx_text), (6 bytes).
    Removing se3_sekey.o(.rev16_text), (4 bytes).
    Removing se3_sekey.o(.revsh_text), (4 bytes).
    Removing se3_sekey.o(.rrx_text), (6 bytes).
    Removing se3_sekey.o(.data), (192 bytes).
    Removing fpga.o(.rev16_text), (4 bytes).
    Removing fpga.o(.revsh_text), (4 bytes).
    Removing fpga.o(.rrx_text), (6 bytes).
    Removing fpga.o(.text), (3576 bytes).
    Removing fpga.o(.constdata), (321378 bytes).
    Removing fpga.o(.conststring), (33 bytes).
    Removing fpga.o(.data), (101 bytes).
    Removing adc.o(.rev16_text), (4 bytes).
    Removing adc.o(.revsh_text), (4 bytes).
    Removing adc.o(.rrx_text), (6 bytes).
    Removing crc.o(.rev16_text), (4 bytes).
    Removing crc.o(.revsh_text), (4 bytes).
    Removing crc.o(.rrx_text), (6 bytes).
    Removing dma.o(.rev16_text), (4 bytes).
    Removing dma.o(.revsh_text), (4 bytes).
    Removing dma.o(.rrx_text), (6 bytes).
    Removing fmc.o(.rev16_text), (4 bytes).
    Removing fmc.o(.revsh_text), (4 bytes).
    Removing fmc.o(.rrx_text), (6 bytes).
    Removing gpio.o(.rev16_text), (4 bytes).
    Removing gpio.o(.revsh_text), (4 bytes).
    Removing gpio.o(.rrx_text), (6 bytes).
    Removing i2c.o(.rev16_text), (4 bytes).
    Removing i2c.o(.revsh_text), (4 bytes).
    Removing i2c.o(.rrx_text), (6 bytes).
    Removing main.o(.rev16_text), (4 bytes).
    Removing main.o(.revsh_text), (4 bytes).
    Removing main.o(.rrx_text), (6 bytes).
    Removing rng.o(.rev16_text), (4 bytes).
    Removing rng.o(.revsh_text), (4 bytes).
    Removing rng.o(.rrx_text), (6 bytes).
    Removing sdio.o(.rev16_text), (4 bytes).
    Removing sdio.o(.revsh_text), (4 bytes).
    Removing sdio.o(.rrx_text), (6 bytes).
    Removing se3_rand.o(.rev16_text), (4 bytes).
    Removing se3_rand.o(.revsh_text), (4 bytes).
    Removing se3_rand.o(.rrx_text), (6 bytes).
    Removing se3_sdio.o(.rev16_text), (4 bytes).
    Removing se3_sdio.o(.revsh_text), (4 bytes).
    Removing se3_sdio.o(.rrx_text), (6 bytes).
    Removing spi.o(.rev16_text), (4 bytes).
    Removing spi.o(.revsh_text), (4 bytes).
    Removing spi.o(.rrx_text), (6 bytes).
    Removing stm32f4xx_hal_msp.o(.rev16_text), (4 bytes).
    Removing stm32f4xx_hal_msp.o(.revsh_text), (4 bytes).
    Removing stm32f4xx_hal_msp.o(.rrx_text), (6 bytes).
    Removing stm32f4xx_it.o(.rev16_text), (4 bytes).
    Removing stm32f4xx_it.o(.revsh_text), (4 bytes).
    Removing stm32f4xx_it.o(.rrx_text), (6 bytes).
    Removing system_stm32f4xx.o(.rev16_text), (4 bytes).
    Removing system_stm32f4xx.o(.revsh_text), (4 bytes).
    Removing system_stm32f4xx.o(.rrx_text), (6 bytes).
    Removing tim.o(.rev16_text), (4 bytes).
    Removing tim.o(.revsh_text), (4 bytes).
    Removing tim.o(.rrx_text), (6 bytes).
    Removing usart.o(.rev16_text), (4 bytes).
    Removing usart.o(.revsh_text), (4 bytes).
    Removing usart.o(.rrx_text), (6 bytes).
    Removing usb_device.o(.rev16_text), (4 bytes).
    Removing usb_device.o(.revsh_text), (4 bytes).
    Removing usb_device.o(.rrx_text), (6 bytes).
    Removing usbd_conf.o(.rev16_text), (4 bytes).
    Removing usbd_conf.o(.revsh_text), (4 bytes).
    Removing usbd_conf.o(.rrx_text), (6 bytes).
    Removing usbd_desc.o(.rev16_text), (4 bytes).
    Removing usbd_desc.o(.revsh_text), (4 bytes).
    Removing usbd_desc.o(.rrx_text), (6 bytes).
    Removing usbd_storage_if.o(.rev16_text), (4 bytes).
    Removing usbd_storage_if.o(.revsh_text), (4 bytes).
    Removing usbd_storage_if.o(.rrx_text), (6 bytes).
    Removing stm32f4xx_hal.o(.rev16_text), (4 bytes).
    Removing stm32f4xx_hal.o(.revsh_text), (4 bytes).
    Removing stm32f4xx_hal.o(.rrx_text), (6 bytes).
    Removing stm32f4xx_hal_adc.o(.rev16_text), (4 bytes).
    Removing stm32f4xx_hal_adc.o(.revsh_text), (4 bytes).
    Removing stm32f4xx_hal_adc.o(.rrx_text), (6 bytes).
    Removing stm32f4xx_hal_adc_ex.o(.rev16_text), (4 bytes).
    Removing stm32f4xx_hal_adc_ex.o(.revsh_text), (4 bytes).
    Removing stm32f4xx_hal_adc_ex.o(.rrx_text), (6 bytes).
    Removing stm32f4xx_hal_can.o(.rev16_text), (4 bytes).
    Removing stm32f4xx_hal_can.o(.revsh_text), (4 bytes).
    Removing stm32f4xx_hal_can.o(.rrx_text), (6 bytes).
    Removing stm32f4xx_hal_cec.o(.rev16_text), (4 bytes).
    Removing stm32f4xx_hal_cec.o(.revsh_text), (4 bytes).
    Removing stm32f4xx_hal_cec.o(.rrx_text), (6 bytes).
    Removing stm32f4xx_hal_cortex.o(.rev16_text), (4 bytes).
    Removing stm32f4xx_hal_cortex.o(.revsh_text), (4 bytes).
    Removing stm32f4xx_hal_cortex.o(.rrx_text), (6 bytes).
    Removing stm32f4xx_hal_crc.o(.rev16_text), (4 bytes).
    Removing stm32f4xx_hal_crc.o(.revsh_text), (4 bytes).
    Removing stm32f4xx_hal_crc.o(.rrx_text), (6 bytes).
    Removing stm32f4xx_hal_cryp.o(.rev16_text), (4 bytes).
    Removing stm32f4xx_hal_cryp.o(.revsh_text), (4 bytes).
    Removing stm32f4xx_hal_cryp.o(.rrx_text), (6 bytes).
    Removing stm32f4xx_hal_cryp_ex.o(.rev16_text), (4 bytes).
    Removing stm32f4xx_hal_cryp_ex.o(.revsh_text), (4 bytes).
    Removing stm32f4xx_hal_cryp_ex.o(.rrx_text), (6 bytes).
    Removing stm32f4xx_hal_dac.o(.rev16_text), (4 bytes).
    Removing stm32f4xx_hal_dac.o(.revsh_text), (4 bytes).
    Removing stm32f4xx_hal_dac.o(.rrx_text), (6 bytes).
    Removing stm32f4xx_hal_dac_ex.o(.rev16_text), (4 bytes).
    Removing stm32f4xx_hal_dac_ex.o(.revsh_text), (4 bytes).
    Removing stm32f4xx_hal_dac_ex.o(.rrx_text), (6 bytes).
    Removing stm32f4xx_hal_dcmi.o(.rev16_text), (4 bytes).
    Removing stm32f4xx_hal_dcmi.o(.revsh_text), (4 bytes).
    Removing stm32f4xx_hal_dcmi.o(.rrx_text), (6 bytes).
    Removing stm32f4xx_hal_dcmi_ex.o(.rev16_text), (4 bytes).
    Removing stm32f4xx_hal_dcmi_ex.o(.revsh_text), (4 bytes).
    Removing stm32f4xx_hal_dcmi_ex.o(.rrx_text), (6 bytes).
    Removing stm32f4xx_hal_dma.o(.rev16_text), (4 bytes).
    Removing stm32f4xx_hal_dma.o(.revsh_text), (4 bytes).
    Removing stm32f4xx_hal_dma.o(.rrx_text), (6 bytes).
    Removing stm32f4xx_hal_dma_ex.o(.rev16_text), (4 bytes).
    Removing stm32f4xx_hal_dma_ex.o(.revsh_text), (4 bytes).
    Removing stm32f4xx_hal_dma_ex.o(.rrx_text), (6 bytes).
    Removing stm32f4xx_hal_dma_ex.o(.text), (370 bytes).
    Removing stm32f4xx_hal_dma2d.o(.rev16_text), (4 bytes).
    Removing stm32f4xx_hal_dma2d.o(.revsh_text), (4 bytes).
    Removing stm32f4xx_hal_dma2d.o(.rrx_text), (6 bytes).
    Removing stm32f4xx_hal_dsi.o(.rev16_text), (4 bytes).
    Removing stm32f4xx_hal_dsi.o(.revsh_text), (4 bytes).
    Removing stm32f4xx_hal_dsi.o(.rrx_text), (6 bytes).
    Removing stm32f4xx_hal_eth.o(.rev16_text), (4 bytes).
    Removing stm32f4xx_hal_eth.o(.revsh_text), (4 bytes).
    Removing stm32f4xx_hal_eth.o(.rrx_text), (6 bytes).
    Removing stm32f4xx_hal_flash.o(.rev16_text), (4 bytes).
    Removing stm32f4xx_hal_flash.o(.revsh_text), (4 bytes).
    Removing stm32f4xx_hal_flash.o(.rrx_text), (6 bytes).
    Removing stm32f4xx_hal_flash_ex.o(.rev16_text), (4 bytes).
    Removing stm32f4xx_hal_flash_ex.o(.revsh_text), (4 bytes).
    Removing stm32f4xx_hal_flash_ex.o(.rrx_text), (6 bytes).
    Removing stm32f4xx_hal_flash_ramfunc.o(.rev16_text), (4 bytes).
    Removing stm32f4xx_hal_flash_ramfunc.o(.revsh_text), (4 bytes).
    Removing stm32f4xx_hal_flash_ramfunc.o(.rrx_text), (6 bytes).
    Removing stm32f4xx_hal_fmpi2c.o(.rev16_text), (4 bytes).
    Removing stm32f4xx_hal_fmpi2c.o(.revsh_text), (4 bytes).
    Removing stm32f4xx_hal_fmpi2c.o(.rrx_text), (6 bytes).
    Removing stm32f4xx_hal_fmpi2c_ex.o(.rev16_text), (4 bytes).
    Removing stm32f4xx_hal_fmpi2c_ex.o(.revsh_text), (4 bytes).
    Removing stm32f4xx_hal_fmpi2c_ex.o(.rrx_text), (6 bytes).
    Removing stm32f4xx_hal_gpio.o(.rev16_text), (4 bytes).
    Removing stm32f4xx_hal_gpio.o(.revsh_text), (4 bytes).
    Removing stm32f4xx_hal_gpio.o(.rrx_text), (6 bytes).
    Removing stm32f4xx_hal_hash.o(.rev16_text), (4 bytes).
    Removing stm32f4xx_hal_hash.o(.revsh_text), (4 bytes).
    Removing stm32f4xx_hal_hash.o(.rrx_text), (6 bytes).
    Removing stm32f4xx_hal_hash_ex.o(.rev16_text), (4 bytes).
    Removing stm32f4xx_hal_hash_ex.o(.revsh_text), (4 bytes).
    Removing stm32f4xx_hal_hash_ex.o(.rrx_text), (6 bytes).
    Removing stm32f4xx_hal_hcd.o(.rev16_text), (4 bytes).
    Removing stm32f4xx_hal_hcd.o(.revsh_text), (4 bytes).
    Removing stm32f4xx_hal_hcd.o(.rrx_text), (6 bytes).
    Removing stm32f4xx_hal_i2c.o(.rev16_text), (4 bytes).
    Removing stm32f4xx_hal_i2c.o(.revsh_text), (4 bytes).
    Removing stm32f4xx_hal_i2c.o(.rrx_text), (6 bytes).
    Removing stm32f4xx_hal_i2c_ex.o(.rev16_text), (4 bytes).
    Removing stm32f4xx_hal_i2c_ex.o(.revsh_text), (4 bytes).
    Removing stm32f4xx_hal_i2c_ex.o(.rrx_text), (6 bytes).
    Removing stm32f4xx_hal_i2c_ex.o(.text), (156 bytes).
    Removing stm32f4xx_hal_i2s.o(.rev16_text), (4 bytes).
    Removing stm32f4xx_hal_i2s.o(.revsh_text), (4 bytes).
    Removing stm32f4xx_hal_i2s.o(.rrx_text), (6 bytes).
    Removing stm32f4xx_hal_i2s_ex.o(.rev16_text), (4 bytes).
    Removing stm32f4xx_hal_i2s_ex.o(.revsh_text), (4 bytes).
    Removing stm32f4xx_hal_i2s_ex.o(.rrx_text), (6 bytes).
    Removing stm32f4xx_hal_irda.o(.rev16_text), (4 bytes).
    Removing stm32f4xx_hal_irda.o(.revsh_text), (4 bytes).
    Removing stm32f4xx_hal_irda.o(.rrx_text), (6 bytes).
    Removing stm32f4xx_hal_iwdg.o(.rev16_text), (4 bytes).
    Removing stm32f4xx_hal_iwdg.o(.revsh_text), (4 bytes).
    Removing stm32f4xx_hal_iwdg.o(.rrx_text), (6 bytes).
    Removing stm32f4xx_hal_lptim.o(.rev16_text), (4 bytes).
    Removing stm32f4xx_hal_lptim.o(.revsh_text), (4 bytes).
    Removing stm32f4xx_hal_lptim.o(.rrx_text), (6 bytes).
    Removing stm32f4xx_hal_ltdc.o(.rev16_text), (4 bytes).
    Removing stm32f4xx_hal_ltdc.o(.revsh_text), (4 bytes).
    Removing stm32f4xx_hal_ltdc.o(.rrx_text), (6 bytes).
    Removing stm32f4xx_hal_ltdc_ex.o(.rev16_text), (4 bytes).
    Removing stm32f4xx_hal_ltdc_ex.o(.revsh_text), (4 bytes).
    Removing stm32f4xx_hal_ltdc_ex.o(.rrx_text), (6 bytes).
    Removing stm32f4xx_hal_nand.o(.rev16_text), (4 bytes).
    Removing stm32f4xx_hal_nand.o(.revsh_text), (4 bytes).
    Removing stm32f4xx_hal_nand.o(.rrx_text), (6 bytes).
    Removing stm32f4xx_hal_nor.o(.rev16_text), (4 bytes).
    Removing stm32f4xx_hal_nor.o(.revsh_text), (4 bytes).
    Removing stm32f4xx_hal_nor.o(.rrx_text), (6 bytes).
    Removing stm32f4xx_hal_pccard.o(.rev16_text), (4 bytes).
    Removing stm32f4xx_hal_pccard.o(.revsh_text), (4 bytes).
    Removing stm32f4xx_hal_pccard.o(.rrx_text), (6 bytes).
    Removing stm32f4xx_hal_pcd.o(.rev16_text), (4 bytes).
    Removing stm32f4xx_hal_pcd.o(.revsh_text), (4 bytes).
    Removing stm32f4xx_hal_pcd.o(.rrx_text), (6 bytes).
    Removing stm32f4xx_hal_pcd_ex.o(.rev16_text), (4 bytes).
    Removing stm32f4xx_hal_pcd_ex.o(.revsh_text), (4 bytes).
    Removing stm32f4xx_hal_pcd_ex.o(.rrx_text), (6 bytes).
    Removing stm32f4xx_hal_pwr.o(.rev16_text), (4 bytes).
    Removing stm32f4xx_hal_pwr.o(.revsh_text), (4 bytes).
    Removing stm32f4xx_hal_pwr.o(.rrx_text), (6 bytes).
    Removing stm32f4xx_hal_pwr.o(.text), (524 bytes).
    Removing stm32f4xx_hal_pwr_ex.o(.rev16_text), (4 bytes).
    Removing stm32f4xx_hal_pwr_ex.o(.revsh_text), (4 bytes).
    Removing stm32f4xx_hal_pwr_ex.o(.rrx_text), (6 bytes).
    Removing stm32f4xx_hal_pwr_ex.o(.text), (884 bytes).
    Removing stm32f4xx_hal_qspi.o(.rev16_text), (4 bytes).
    Removing stm32f4xx_hal_qspi.o(.revsh_text), (4 bytes).
    Removing stm32f4xx_hal_qspi.o(.rrx_text), (6 bytes).
    Removing stm32f4xx_hal_rcc.o(.rev16_text), (4 bytes).
    Removing stm32f4xx_hal_rcc.o(.revsh_text), (4 bytes).
    Removing stm32f4xx_hal_rcc.o(.rrx_text), (6 bytes).
    Removing stm32f4xx_hal_rcc_ex.o(.rev16_text), (4 bytes).
    Removing stm32f4xx_hal_rcc_ex.o(.revsh_text), (4 bytes).
    Removing stm32f4xx_hal_rcc_ex.o(.rrx_text), (6 bytes).
    Removing stm32f4xx_hal_rcc_ex.o(.text), (1252 bytes).
    Removing stm32f4xx_hal_rng.o(.rev16_text), (4 bytes).
    Removing stm32f4xx_hal_rng.o(.revsh_text), (4 bytes).
    Removing stm32f4xx_hal_rng.o(.rrx_text), (6 bytes).
    Removing stm32f4xx_hal_rtc.o(.rev16_text), (4 bytes).
    Removing stm32f4xx_hal_rtc.o(.revsh_text), (4 bytes).
    Removing stm32f4xx_hal_rtc.o(.rrx_text), (6 bytes).
    Removing stm32f4xx_hal_rtc_ex.o(.rev16_text), (4 bytes).
    Removing stm32f4xx_hal_rtc_ex.o(.revsh_text), (4 bytes).
    Removing stm32f4xx_hal_rtc_ex.o(.rrx_text), (6 bytes).
    Removing stm32f4xx_hal_sai.o(.rev16_text), (4 bytes).
    Removing stm32f4xx_hal_sai.o(.revsh_text), (4 bytes).
    Removing stm32f4xx_hal_sai.o(.rrx_text), (6 bytes).
    Removing stm32f4xx_hal_sai_ex.o(.rev16_text), (4 bytes).
    Removing stm32f4xx_hal_sai_ex.o(.revsh_text), (4 bytes).
    Removing stm32f4xx_hal_sai_ex.o(.rrx_text), (6 bytes).
    Removing stm32f4xx_hal_sd.o(.rev16_text), (4 bytes).
    Removing stm32f4xx_hal_sd.o(.revsh_text), (4 bytes).
    Removing stm32f4xx_hal_sd.o(.rrx_text), (6 bytes).
    Removing stm32f4xx_hal_sdram.o(.rev16_text), (4 bytes).
    Removing stm32f4xx_hal_sdram.o(.revsh_text), (4 bytes).
    Removing stm32f4xx_hal_sdram.o(.rrx_text), (6 bytes).
    Removing stm32f4xx_hal_smartcard.o(.rev16_text), (4 bytes).
    Removing stm32f4xx_hal_smartcard.o(.revsh_text), (4 bytes).
    Removing stm32f4xx_hal_smartcard.o(.rrx_text), (6 bytes).
    Removing stm32f4xx_hal_spdifrx.o(.rev16_text), (4 bytes).
    Removing stm32f4xx_hal_spdifrx.o(.revsh_text), (4 bytes).
    Removing stm32f4xx_hal_spdifrx.o(.rrx_text), (6 bytes).
    Removing stm32f4xx_hal_spi.o(.rev16_text), (4 bytes).
    Removing stm32f4xx_hal_spi.o(.revsh_text), (4 bytes).
    Removing stm32f4xx_hal_spi.o(.rrx_text), (6 bytes).
    Removing stm32f4xx_hal_sram.o(.rev16_text), (4 bytes).
    Removing stm32f4xx_hal_sram.o(.revsh_text), (4 bytes).
    Removing stm32f4xx_hal_sram.o(.rrx_text), (6 bytes).
    Removing stm32f4xx_hal_tim.o(.rev16_text), (4 bytes).
    Removing stm32f4xx_hal_tim.o(.revsh_text), (4 bytes).
    Removing stm32f4xx_hal_tim.o(.rrx_text), (6 bytes).
    Removing stm32f4xx_hal_tim_ex.o(.rev16_text), (4 bytes).
    Removing stm32f4xx_hal_tim_ex.o(.revsh_text), (4 bytes).
    Removing stm32f4xx_hal_tim_ex.o(.rrx_text), (6 bytes).
    Removing stm32f4xx_hal_uart.o(.rev16_text), (4 bytes).
    Removing stm32f4xx_hal_uart.o(.revsh_text), (4 bytes).
    Removing stm32f4xx_hal_uart.o(.rrx_text), (6 bytes).
    Removing stm32f4xx_hal_usart.o(.rev16_text), (4 bytes).
    Removing stm32f4xx_hal_usart.o(.revsh_text), (4 bytes).
    Removing stm32f4xx_hal_usart.o(.rrx_text), (6 bytes).
    Removing stm32f4xx_hal_wwdg.o(.rev16_text), (4 bytes).
    Removing stm32f4xx_hal_wwdg.o(.revsh_text), (4 bytes).
    Removing stm32f4xx_hal_wwdg.o(.rrx_text), (6 bytes).
    Removing stm32f4xx_ll_fmc.o(.rev16_text), (4 bytes).
    Removing stm32f4xx_ll_fmc.o(.revsh_text), (4 bytes).
    Removing stm32f4xx_ll_fmc.o(.rrx_text), (6 bytes).
    Removing stm32f4xx_ll_fsmc.o(.rev16_text), (4 bytes).
    Removing stm32f4xx_ll_fsmc.o(.revsh_text), (4 bytes).
    Removing stm32f4xx_ll_fsmc.o(.rrx_text), (6 bytes).
    Removing stm32f4xx_ll_sdmmc.o(.rev16_text), (4 bytes).
    Removing stm32f4xx_ll_sdmmc.o(.revsh_text), (4 bytes).
    Removing stm32f4xx_ll_sdmmc.o(.rrx_text), (6 bytes).
    Removing stm32f4xx_ll_usb.o(.rev16_text), (4 bytes).
    Removing stm32f4xx_ll_usb.o(.revsh_text), (4 bytes).
    Removing stm32f4xx_ll_usb.o(.rrx_text), (6 bytes).
    Removing usbd_core.o(.rev16_text), (4 bytes).
    Removing usbd_core.o(.revsh_text), (4 bytes).
    Removing usbd_core.o(.rrx_text), (6 bytes).
    Removing usbd_ctlreq.o(.rev16_text), (4 bytes).
    Removing usbd_ctlreq.o(.revsh_text), (4 bytes).
    Removing usbd_ctlreq.o(.rrx_text), (6 bytes).
    Removing usbd_ioreq.o(.rev16_text), (4 bytes).
    Removing usbd_ioreq.o(.revsh_text), (4 bytes).
    Removing usbd_ioreq.o(.rrx_text), (6 bytes).
    Removing usbd_msc.o(.rev16_text), (4 bytes).
    Removing usbd_msc.o(.revsh_text), (4 bytes).
    Removing usbd_msc.o(.rrx_text), (6 bytes).
    Removing usbd_msc_bot.o(.rev16_text), (4 bytes).
    Removing usbd_msc_bot.o(.revsh_text), (4 bytes).
    Removing usbd_msc_bot.o(.rrx_text), (6 bytes).
    Removing usbd_msc_data.o(.rev16_text), (4 bytes).
    Removing usbd_msc_data.o(.revsh_text), (4 bytes).
    Removing usbd_msc_data.o(.rrx_text), (6 bytes).
    Removing usbd_msc_scsi.o(.rev16_text), (4 bytes).
    Removing usbd_msc_scsi.o(.revsh_text), (4 bytes).
    Removing usbd_msc_scsi.o(.rrx_text), (6 bytes).

333 unused section(s) (total 331342 bytes) removed from the image.

==============================================================================

Image Symbol Table

    Local Symbols

    Symbol Name                              Value     Ov Type        Size  Object(Section)

    ../clib/angel/boardlib.s                 0x00000000   Number         0  boardshut.o ABSOLUTE
    ../clib/angel/boardlib.s                 0x00000000   Number         0  boardinit1.o ABSOLUTE
    ../clib/angel/boardlib.s                 0x00000000   Number         0  boardinit2.o ABSOLUTE
    ../clib/angel/boardlib.s                 0x00000000   Number         0  boardinit3.o ABSOLUTE
    ../clib/angel/dczerorl2.s                0x00000000   Number         0  __dczerorl2.o ABSOLUTE
    ../clib/angel/handlers.s                 0x00000000   Number         0  __scatter_zi.o ABSOLUTE
    ../clib/angel/kernel.s                   0x00000000   Number         0  rtexit2.o ABSOLUTE
    ../clib/angel/kernel.s                   0x00000000   Number         0  __rtentry.o ABSOLUTE
    ../clib/angel/kernel.s                   0x00000000   Number         0  __rtentry2.o ABSOLUTE
    ../clib/angel/kernel.s                   0x00000000   Number         0  rtexit.o ABSOLUTE
    ../clib/angel/kernel.s                   0x00000000   Number         0  __rtentry4.o ABSOLUTE
    ../clib/angel/rt.s                       0x00000000   Number         0  rt_raise.o ABSOLUTE
    ../clib/angel/rt.s                       0x00000000   Number         0  rt_heap_descriptor_intlibspace.o ABSOLUTE
    ../clib/angel/rt.s                       0x00000000   Number         0  rt_div0.o ABSOLUTE
    ../clib/angel/rt.s                       0x00000000   Number         0  rt_heap_descriptor.o ABSOLUTE
    ../clib/angel/rt.s                       0x00000000   Number         0  aeabi_ldiv0_sigfpe.o ABSOLUTE
    ../clib/angel/rt.s                       0x00000000   Number         0  aeabi_ldiv0.o ABSOLUTE
    ../clib/angel/scatter.s                  0x00000000   Number         0  __scatter.o ABSOLUTE
    ../clib/angel/startup.s                  0x00000000   Number         0  __main.o ABSOLUTE
    ../clib/angel/sys.s                      0x00000000   Number         0  indicate_semi.o ABSOLUTE
    ../clib/angel/sys.s                      0x00000000   Number         0  sys_stackheap_outer.o ABSOLUTE
    ../clib/angel/sys.s                      0x00000000   Number         0  mutex_dummy.o ABSOLUTE
    ../clib/angel/sys.s                      0x00000000   Number         0  use_no_semi.o ABSOLUTE
    ../clib/angel/sys.s                      0x00000000   Number         0  libspace.o ABSOLUTE
    ../clib/angel/sysapp.c                   0x00000000   Number         0  sys_command.o ABSOLUTE
    ../clib/angel/sysapp.c                   0x00000000   Number         0  sys_exit.o ABSOLUTE
    ../clib/angel/sysapp.c                   0x00000000   Number         0  sys_wrch.o ABSOLUTE
    ../clib/armsys.c                         0x00000000   Number         0  no_argv.o ABSOLUTE
    ../clib/armsys.c                         0x00000000   Number         0  argv_veneer.o ABSOLUTE
    ../clib/armsys.c                         0x00000000   Number         0  argv_veneer.o ABSOLUTE
    ../clib/armsys.c                         0x00000000   Number         0  _get_argv.o ABSOLUTE
    ../clib/armsys.c                         0x00000000   Number         0  _get_argv_nomalloc.o ABSOLUTE
    ../clib/heap1.c                          0x00000000   Number         0  h1_final.o ABSOLUTE
    ../clib/heap1.c                          0x00000000   Number         0  h1_init.o ABSOLUTE
    ../clib/heap1.c                          0x00000000   Number         0  h1_init_mt.o ABSOLUTE
    ../clib/heap1.c                          0x00000000   Number         0  h1_final_mt.o ABSOLUTE
    ../clib/heap1.c                          0x00000000   Number         0  h1_extend.o ABSOLUTE
    ../clib/heap1.c                          0x00000000   Number         0  h1_extend_mt.o ABSOLUTE
    ../clib/heap1.c                          0x00000000   Number         0  h1_free_mt.o ABSOLUTE
    ../clib/heap1.c                          0x00000000   Number         0  h1_alloc_mt.o ABSOLUTE
    ../clib/heap1.c                          0x00000000   Number         0  h1_free.o ABSOLUTE
    ../clib/heap1.c                          0x00000000   Number         0  h1_alloc.o ABSOLUTE
    ../clib/heap2.c                          0x00000000   Number         0  fdtree.o ABSOLUTE
    ../clib/heap2.c                          0x00000000   Number         0  heap2mt.o ABSOLUTE
    ../clib/heap2.c                          0x00000000   Number         0  heap2.o ABSOLUTE
    ../clib/heapalloc.c                      0x00000000   Number         0  heapstubs.o ABSOLUTE
    ../clib/heapalloc.c                      0x00000000   Number         0  hguard.o ABSOLUTE
    ../clib/heapalloc.c                      0x00000000   Number         0  maybetermalloc2.o ABSOLUTE
    ../clib/heapalloc.c                      0x00000000   Number         0  maybetermalloc2.o ABSOLUTE
    ../clib/heapalloc.c                      0x00000000   Number         0  malloc.o ABSOLUTE
    ../clib/heapalloc.c                      0x00000000   Number         0  init_alloc.o ABSOLUTE
    ../clib/heapalloc.c                      0x00000000   Number         0  maybetermalloc1.o ABSOLUTE
    ../clib/heapalloc.c                      0x00000000   Number         0  free.o ABSOLUTE
    ../clib/heapalloc.c                      0x00000000   Number         0  maybetermalloc1.o ABSOLUTE
    ../clib/heapalloc.c                      0x00000000   Number         0  hrguard.o ABSOLUTE
    ../clib/heapalloc.c                      0x00000000   Number         0  term_alloc.o ABSOLUTE
    ../clib/heapaux.c                        0x00000000   Number         0  heapauxi.o ABSOLUTE
    ../clib/heapaux.c                        0x00000000   Number         0  heapauxa.o ABSOLUTE
    ../clib/libinit.s                        0x00000000   Number         0  libinit.o ABSOLUTE
    ../clib/libinit.s                        0x00000000   Number         0  libinit2.o ABSOLUTE
    ../clib/libinit.s                        0x00000000   Number         0  libshutdown.o ABSOLUTE
    ../clib/libinit.s                        0x00000000   Number         0  libshutdown2.o ABSOLUTE
    ../clib/longlong.s                       0x00000000   Number         0  lludivv7m.o ABSOLUTE
    ../clib/memcpset.s                       0x00000000   Number         0  rt_memclr.o ABSOLUTE
    ../clib/memcpset.s                       0x00000000   Number         0  aeabi_memset.o ABSOLUTE
    ../clib/memcpset.s                       0x00000000   Number         0  rt_memmove_v6.o ABSOLUTE
    ../clib/memcpset.s                       0x00000000   Number         0  rt_memcpy_v6.o ABSOLUTE
    ../clib/memcpset.s                       0x00000000   Number         0  rt_memcpy_w.o ABSOLUTE
    ../clib/memcpset.s                       0x00000000   Number         0  rt_memmove_w.o ABSOLUTE
    ../clib/memcpset.s                       0x00000000   Number         0  rt_memclr_w.o ABSOLUTE
    ../clib/signal.c                         0x00000000   Number         0  defsig_fpe_outer.o ABSOLUTE
    ../clib/signal.c                         0x00000000   Number         0  defsig_fpe_formal.o ABSOLUTE
    ../clib/signal.c                         0x00000000   Number         0  defsig_rtmem_inner.o ABSOLUTE
    ../clib/signal.c                         0x00000000   Number         0  defsig_rtred_inner.o ABSOLUTE
    ../clib/signal.c                         0x00000000   Number         0  defsig_abrt_inner.o ABSOLUTE
    ../clib/signal.c                         0x00000000   Number         0  __raise.o ABSOLUTE
    ../clib/signal.c                         0x00000000   Number         0  defsig_fpe_inner.o ABSOLUTE
    ../clib/signal.c                         0x00000000   Number         0  defsig_rtmem_formal.o ABSOLUTE
    ../clib/signal.c                         0x00000000   Number         0  defsig_rtmem_outer.o ABSOLUTE
    ../clib/signal.c                         0x00000000   Number         0  defsig_exit.o ABSOLUTE
    ../clib/signal.c                         0x00000000   Number         0  defsig_other.o ABSOLUTE
    ../clib/signal.c                         0x00000000   Number         0  defsig_segv_inner.o ABSOLUTE
    ../clib/signal.c                         0x00000000   Number         0  defsig_cppl_inner.o ABSOLUTE
    ../clib/signal.c                         0x00000000   Number         0  defsig_general.o ABSOLUTE
    ../clib/signal.c                         0x00000000   Number         0  defsig_pvfn_inner.o ABSOLUTE
    ../clib/signal.c                         0x00000000   Number         0  defsig_stak_inner.o ABSOLUTE
    ../clib/signal.s                         0x00000000   Number         0  defsig.o ABSOLUTE
    ../clib/stdlib.c                         0x00000000   Number         0  exit.o ABSOLUTE
    ../clib/string.c                         0x00000000   Number         0  memcmp.o ABSOLUTE
    ../fplib/fpinit.s                        0x00000000   Number         0  fpinit.o ABSOLUTE
    ..\..\Drivers\STM32F4xx_HAL_Driver\Src\stm32f4xx_hal.c 0x00000000   Number         0  stm32f4xx_hal.o ABSOLUTE
    ..\..\Drivers\STM32F4xx_HAL_Driver\Src\stm32f4xx_hal_adc.c 0x00000000   Number         0  stm32f4xx_hal_adc.o ABSOLUTE
    ..\..\Drivers\STM32F4xx_HAL_Driver\Src\stm32f4xx_hal_adc_ex.c 0x00000000   Number         0  stm32f4xx_hal_adc_ex.o ABSOLUTE
    ..\..\Drivers\STM32F4xx_HAL_Driver\Src\stm32f4xx_hal_can.c 0x00000000   Number         0  stm32f4xx_hal_can.o ABSOLUTE
    ..\..\Drivers\STM32F4xx_HAL_Driver\Src\stm32f4xx_hal_cec.c 0x00000000   Number         0  stm32f4xx_hal_cec.o ABSOLUTE
    ..\..\Drivers\STM32F4xx_HAL_Driver\Src\stm32f4xx_hal_cortex.c 0x00000000   Number         0  stm32f4xx_hal_cortex.o ABSOLUTE
    ..\..\Drivers\STM32F4xx_HAL_Driver\Src\stm32f4xx_hal_crc.c 0x00000000   Number         0  stm32f4xx_hal_crc.o ABSOLUTE
    ..\..\Drivers\STM32F4xx_HAL_Driver\Src\stm32f4xx_hal_cryp.c 0x00000000   Number         0  stm32f4xx_hal_cryp.o ABSOLUTE
    ..\..\Drivers\STM32F4xx_HAL_Driver\Src\stm32f4xx_hal_cryp_ex.c 0x00000000   Number         0  stm32f4xx_hal_cryp_ex.o ABSOLUTE
    ..\..\Drivers\STM32F4xx_HAL_Driver\Src\stm32f4xx_hal_dac.c 0x00000000   Number         0  stm32f4xx_hal_dac.o ABSOLUTE
    ..\..\Drivers\STM32F4xx_HAL_Driver\Src\stm32f4xx_hal_dac_ex.c 0x00000000   Number         0  stm32f4xx_hal_dac_ex.o ABSOLUTE
    ..\..\Drivers\STM32F4xx_HAL_Driver\Src\stm32f4xx_hal_dcmi.c 0x00000000   Number         0  stm32f4xx_hal_dcmi.o ABSOLUTE
    ..\..\Drivers\STM32F4xx_HAL_Driver\Src\stm32f4xx_hal_dcmi_ex.c 0x00000000   Number         0  stm32f4xx_hal_dcmi_ex.o ABSOLUTE
    ..\..\Drivers\STM32F4xx_HAL_Driver\Src\stm32f4xx_hal_dma.c 0x00000000   Number         0  stm32f4xx_hal_dma.o ABSOLUTE
    ..\..\Drivers\STM32F4xx_HAL_Driver\Src\stm32f4xx_hal_dma2d.c 0x00000000   Number         0  stm32f4xx_hal_dma2d.o ABSOLUTE
    ..\..\Drivers\STM32F4xx_HAL_Driver\Src\stm32f4xx_hal_dma_ex.c 0x00000000   Number         0  stm32f4xx_hal_dma_ex.o ABSOLUTE
    ..\..\Drivers\STM32F4xx_HAL_Driver\Src\stm32f4xx_hal_dsi.c 0x00000000   Number         0  stm32f4xx_hal_dsi.o ABSOLUTE
    ..\..\Drivers\STM32F4xx_HAL_Driver\Src\stm32f4xx_hal_eth.c 0x00000000   Number         0  stm32f4xx_hal_eth.o ABSOLUTE
    ..\..\Drivers\STM32F4xx_HAL_Driver\Src\stm32f4xx_hal_flash.c 0x00000000   Number         0  stm32f4xx_hal_flash.o ABSOLUTE
    ..\..\Drivers\STM32F4xx_HAL_Driver\Src\stm32f4xx_hal_flash_ex.c 0x00000000   Number         0  stm32f4xx_hal_flash_ex.o ABSOLUTE
    ..\..\Drivers\STM32F4xx_HAL_Driver\Src\stm32f4xx_hal_flash_ramfunc.c 0x00000000   Number         0  stm32f4xx_hal_flash_ramfunc.o ABSOLUTE
    ..\..\Drivers\STM32F4xx_HAL_Driver\Src\stm32f4xx_hal_fmpi2c.c 0x00000000   Number         0  stm32f4xx_hal_fmpi2c.o ABSOLUTE
    ..\..\Drivers\STM32F4xx_HAL_Driver\Src\stm32f4xx_hal_fmpi2c_ex.c 0x00000000   Number         0  stm32f4xx_hal_fmpi2c_ex.o ABSOLUTE
    ..\..\Drivers\STM32F4xx_HAL_Driver\Src\stm32f4xx_hal_gpio.c 0x00000000   Number         0  stm32f4xx_hal_gpio.o ABSOLUTE
    ..\..\Drivers\STM32F4xx_HAL_Driver\Src\stm32f4xx_hal_hash.c 0x00000000   Number         0  stm32f4xx_hal_hash.o ABSOLUTE
    ..\..\Drivers\STM32F4xx_HAL_Driver\Src\stm32f4xx_hal_hash_ex.c 0x00000000   Number         0  stm32f4xx_hal_hash_ex.o ABSOLUTE
    ..\..\Drivers\STM32F4xx_HAL_Driver\Src\stm32f4xx_hal_hcd.c 0x00000000   Number         0  stm32f4xx_hal_hcd.o ABSOLUTE
    ..\..\Drivers\STM32F4xx_HAL_Driver\Src\stm32f4xx_hal_i2c.c 0x00000000   Number         0  stm32f4xx_hal_i2c.o ABSOLUTE
    ..\..\Drivers\STM32F4xx_HAL_Driver\Src\stm32f4xx_hal_i2c_ex.c 0x00000000   Number         0  stm32f4xx_hal_i2c_ex.o ABSOLUTE
    ..\..\Drivers\STM32F4xx_HAL_Driver\Src\stm32f4xx_hal_i2s.c 0x00000000   Number         0  stm32f4xx_hal_i2s.o ABSOLUTE
    ..\..\Drivers\STM32F4xx_HAL_Driver\Src\stm32f4xx_hal_i2s_ex.c 0x00000000   Number         0  stm32f4xx_hal_i2s_ex.o ABSOLUTE
    ..\..\Drivers\STM32F4xx_HAL_Driver\Src\stm32f4xx_hal_irda.c 0x00000000   Number         0  stm32f4xx_hal_irda.o ABSOLUTE
    ..\..\Drivers\STM32F4xx_HAL_Driver\Src\stm32f4xx_hal_iwdg.c 0x00000000   Number         0  stm32f4xx_hal_iwdg.o ABSOLUTE
    ..\..\Drivers\STM32F4xx_HAL_Driver\Src\stm32f4xx_hal_lptim.c 0x00000000   Number         0  stm32f4xx_hal_lptim.o ABSOLUTE
    ..\..\Drivers\STM32F4xx_HAL_Driver\Src\stm32f4xx_hal_ltdc.c 0x00000000   Number         0  stm32f4xx_hal_ltdc.o ABSOLUTE
    ..\..\Drivers\STM32F4xx_HAL_Driver\Src\stm32f4xx_hal_ltdc_ex.c 0x00000000   Number         0  stm32f4xx_hal_ltdc_ex.o ABSOLUTE
    ..\..\Drivers\STM32F4xx_HAL_Driver\Src\stm32f4xx_hal_nand.c 0x00000000   Number         0  stm32f4xx_hal_nand.o ABSOLUTE
    ..\..\Drivers\STM32F4xx_HAL_Driver\Src\stm32f4xx_hal_nor.c 0x00000000   Number         0  stm32f4xx_hal_nor.o ABSOLUTE
    ..\..\Drivers\STM32F4xx_HAL_Driver\Src\stm32f4xx_hal_pccard.c 0x00000000   Number         0  stm32f4xx_hal_pccard.o ABSOLUTE
    ..\..\Drivers\STM32F4xx_HAL_Driver\Src\stm32f4xx_hal_pcd.c 0x00000000   Number         0  stm32f4xx_hal_pcd.o ABSOLUTE
    ..\..\Drivers\STM32F4xx_HAL_Driver\Src\stm32f4xx_hal_pcd_ex.c 0x00000000   Number         0  stm32f4xx_hal_pcd_ex.o ABSOLUTE
    ..\..\Drivers\STM32F4xx_HAL_Driver\Src\stm32f4xx_hal_pwr.c 0x00000000   Number         0  stm32f4xx_hal_pwr.o ABSOLUTE
    ..\..\Drivers\STM32F4xx_HAL_Driver\Src\stm32f4xx_hal_pwr_ex.c 0x00000000   Number         0  stm32f4xx_hal_pwr_ex.o ABSOLUTE
    ..\..\Drivers\STM32F4xx_HAL_Driver\Src\stm32f4xx_hal_qspi.c 0x00000000   Number         0  stm32f4xx_hal_qspi.o ABSOLUTE
    ..\..\Drivers\STM32F4xx_HAL_Driver\Src\stm32f4xx_hal_rcc.c 0x00000000   Number         0  stm32f4xx_hal_rcc.o ABSOLUTE
    ..\..\Drivers\STM32F4xx_HAL_Driver\Src\stm32f4xx_hal_rcc_ex.c 0x00000000   Number         0  stm32f4xx_hal_rcc_ex.o ABSOLUTE
    ..\..\Drivers\STM32F4xx_HAL_Driver\Src\stm32f4xx_hal_rng.c 0x00000000   Number         0  stm32f4xx_hal_rng.o ABSOLUTE
    ..\..\Drivers\STM32F4xx_HAL_Driver\Src\stm32f4xx_hal_rtc.c 0x00000000   Number         0  stm32f4xx_hal_rtc.o ABSOLUTE
    ..\..\Drivers\STM32F4xx_HAL_Driver\Src\stm32f4xx_hal_rtc_ex.c 0x00000000   Number         0  stm32f4xx_hal_rtc_ex.o ABSOLUTE
    ..\..\Drivers\STM32F4xx_HAL_Driver\Src\stm32f4xx_hal_sai.c 0x00000000   Number         0  stm32f4xx_hal_sai.o ABSOLUTE
    ..\..\Drivers\STM32F4xx_HAL_Driver\Src\stm32f4xx_hal_sai_ex.c 0x00000000   Number         0  stm32f4xx_hal_sai_ex.o ABSOLUTE
    ..\..\Drivers\STM32F4xx_HAL_Driver\Src\stm32f4xx_hal_sd.c 0x00000000   Number         0  stm32f4xx_hal_sd.o ABSOLUTE
    ..\..\Drivers\STM32F4xx_HAL_Driver\Src\stm32f4xx_hal_sdram.c 0x00000000   Number         0  stm32f4xx_hal_sdram.o ABSOLUTE
    ..\..\Drivers\STM32F4xx_HAL_Driver\Src\stm32f4xx_hal_smartcard.c 0x00000000   Number         0  stm32f4xx_hal_smartcard.o ABSOLUTE
    ..\..\Drivers\STM32F4xx_HAL_Driver\Src\stm32f4xx_hal_spdifrx.c 0x00000000   Number         0  stm32f4xx_hal_spdifrx.o ABSOLUTE
    ..\..\Drivers\STM32F4xx_HAL_Driver\Src\stm32f4xx_hal_spi.c 0x00000000   Number         0  stm32f4xx_hal_spi.o ABSOLUTE
    ..\..\Drivers\STM32F4xx_HAL_Driver\Src\stm32f4xx_hal_sram.c 0x00000000   Number         0  stm32f4xx_hal_sram.o ABSOLUTE
    ..\..\Drivers\STM32F4xx_HAL_Driver\Src\stm32f4xx_hal_tim.c 0x00000000   Number         0  stm32f4xx_hal_tim.o ABSOLUTE
    ..\..\Drivers\STM32F4xx_HAL_Driver\Src\stm32f4xx_hal_tim_ex.c 0x00000000   Number         0  stm32f4xx_hal_tim_ex.o ABSOLUTE
    ..\..\Drivers\STM32F4xx_HAL_Driver\Src\stm32f4xx_hal_uart.c 0x00000000   Number         0  stm32f4xx_hal_uart.o ABSOLUTE
    ..\..\Drivers\STM32F4xx_HAL_Driver\Src\stm32f4xx_hal_usart.c 0x00000000   Number         0  stm32f4xx_hal_usart.o ABSOLUTE
    ..\..\Drivers\STM32F4xx_HAL_Driver\Src\stm32f4xx_hal_wwdg.c 0x00000000   Number         0  stm32f4xx_hal_wwdg.o ABSOLUTE
    ..\..\Drivers\STM32F4xx_HAL_Driver\Src\stm32f4xx_ll_fmc.c 0x00000000   Number         0  stm32f4xx_ll_fmc.o ABSOLUTE
    ..\..\Drivers\STM32F4xx_HAL_Driver\Src\stm32f4xx_ll_fsmc.c 0x00000000   Number         0  stm32f4xx_ll_fsmc.o ABSOLUTE
    ..\..\Drivers\STM32F4xx_HAL_Driver\Src\stm32f4xx_ll_sdmmc.c 0x00000000   Number         0  stm32f4xx_ll_sdmmc.o ABSOLUTE
    ..\..\Drivers\STM32F4xx_HAL_Driver\Src\stm32f4xx_ll_usb.c 0x00000000   Number         0  stm32f4xx_ll_usb.o ABSOLUTE
    ..\..\Middlewares\ST\STM32_USB_Device_Library\Class\MSC\Src\usbd_msc.c 0x00000000   Number         0  usbd_msc.o ABSOLUTE
    ..\..\Middlewares\ST\STM32_USB_Device_Library\Class\MSC\Src\usbd_msc_bot.c 0x00000000   Number         0  usbd_msc_bot.o ABSOLUTE
    ..\..\Middlewares\ST\STM32_USB_Device_Library\Class\MSC\Src\usbd_msc_data.c 0x00000000   Number         0  usbd_msc_data.o ABSOLUTE
    ..\..\Middlewares\ST\STM32_USB_Device_Library\Class\MSC\Src\usbd_msc_scsi.c 0x00000000   Number         0  usbd_msc_scsi.o ABSOLUTE
    ..\..\Middlewares\ST\STM32_USB_Device_Library\Core\Src\usbd_core.c 0x00000000   Number         0  usbd_core.o ABSOLUTE
    ..\..\Middlewares\ST\STM32_USB_Device_Library\Core\Src\usbd_ctlreq.c 0x00000000   Number         0  usbd_ctlreq.o ABSOLUTE
    ..\..\Middlewares\ST\STM32_USB_Device_Library\Core\Src\usbd_ioreq.c 0x00000000   Number         0  usbd_ioreq.o ABSOLUTE
    ..\Src\Common\aes256.c                   0x00000000   Number         0  aes256.o ABSOLUTE
    ..\Src\Common\crc16.c                    0x00000000   Number         0  crc16.o ABSOLUTE
    ..\Src\Common\pbkdf2.c                   0x00000000   Number         0  pbkdf2.o ABSOLUTE
    ..\Src\Common\se3_common.c               0x00000000   Number         0  se3_common.o ABSOLUTE
    ..\Src\Common\sha256.c                   0x00000000   Number         0  sha256.o ABSOLUTE
    ..\Src\Device\FPGA.c                     0x00000000   Number         0  fpga.o ABSOLUTE
    ..\Src\Device\se3_FPGA.c                 0x00000000   Number         0  se3_fpga.o ABSOLUTE
    ..\Src\Device\se3_algo_Aes.c             0x00000000   Number         0  se3_algo_aes.o ABSOLUTE
    ..\Src\Device\se3_algo_AesHmacSha256s.c  0x00000000   Number         0  se3_algo_aeshmacsha256s.o ABSOLUTE
    ..\Src\Device\se3_algo_HmacSha256.c      0x00000000   Number         0  se3_algo_hmacsha256.o ABSOLUTE
    ..\Src\Device\se3_algo_aes256hmacsha256.c 0x00000000   Number         0  se3_algo_aes256hmacsha256.o ABSOLUTE
    ..\Src\Device\se3_algo_sha256.c          0x00000000   Number         0  se3_algo_sha256.o ABSOLUTE
    ..\Src\Device\se3_communication_core.c   0x00000000   Number         0  se3_communication_core.o ABSOLUTE
    ..\Src\Device\se3_core.c                 0x00000000   Number         0  se3_core.o ABSOLUTE
    ..\Src\Device\se3_core_time.c            0x00000000   Number         0  se3_core_time.o ABSOLUTE
    ..\Src\Device\se3_dispatcher_core.c      0x00000000   Number         0  se3_dispatcher_core.o ABSOLUTE
    ..\Src\Device\se3_flash.c                0x00000000   Number         0  se3_flash.o ABSOLUTE
    ..\Src\Device\se3_keys.c                 0x00000000   Number         0  se3_keys.o ABSOLUTE
    ..\Src\Device\se3_memory.c               0x00000000   Number         0  se3_memory.o ABSOLUTE
    ..\Src\Device\se3_security_core.c        0x00000000   Number         0  se3_security_core.o ABSOLUTE
    ..\Src\Device\se3_sekey.c                0x00000000   Number         0  se3_sekey.o ABSOLUTE
    ..\Src\Device\se3_smartcard.c            0x00000000   Number         0  se3_smartcard.o ABSOLUTE
    ..\Src\adc.c                             0x00000000   Number         0  adc.o ABSOLUTE
    ..\Src\crc.c                             0x00000000   Number         0  crc.o ABSOLUTE
    ..\Src\dma.c                             0x00000000   Number         0  dma.o ABSOLUTE
    ..\Src\fmc.c                             0x00000000   Number         0  fmc.o ABSOLUTE
    ..\Src\gpio.c                            0x00000000   Number         0  gpio.o ABSOLUTE
    ..\Src\i2c.c                             0x00000000   Number         0  i2c.o ABSOLUTE
    ..\Src\main.c                            0x00000000   Number         0  main.o ABSOLUTE
    ..\Src\rng.c                             0x00000000   Number         0  rng.o ABSOLUTE
    ..\Src\sdio.c                            0x00000000   Number         0  sdio.o ABSOLUTE
    ..\Src\se3_rand.c                        0x00000000   Number         0  se3_rand.o ABSOLUTE
    ..\Src\se3_sdio.c                        0x00000000   Number         0  se3_sdio.o ABSOLUTE
    ..\Src\spi.c                             0x00000000   Number         0  spi.o ABSOLUTE
    ..\Src\stm32f4xx_hal_msp.c               0x00000000   Number         0  stm32f4xx_hal_msp.o ABSOLUTE
    ..\Src\stm32f4xx_it.c                    0x00000000   Number         0  stm32f4xx_it.o ABSOLUTE
    ..\Src\system_stm32f4xx.c                0x00000000   Number         0  system_stm32f4xx.o ABSOLUTE
    ..\Src\tim.c                             0x00000000   Number         0  tim.o ABSOLUTE
    ..\Src\usart.c                           0x00000000   Number         0  usart.o ABSOLUTE
    ..\Src\usb_device.c                      0x00000000   Number         0  usb_device.o ABSOLUTE
    ..\Src\usbd_conf.c                       0x00000000   Number         0  usbd_conf.o ABSOLUTE
    ..\Src\usbd_desc.c                       0x00000000   Number         0  usbd_desc.o ABSOLUTE
    ..\Src\usbd_storage_if.c                 0x00000000   Number         0  usbd_storage_if.o ABSOLUTE
    ..\\..\\Drivers\\STM32F4xx_HAL_Driver\\Src\\stm32f4xx_hal.c 0x00000000   Number         0  stm32f4xx_hal.o ABSOLUTE
    ..\\..\\Drivers\\STM32F4xx_HAL_Driver\\Src\\stm32f4xx_hal_adc.c 0x00000000   Number         0  stm32f4xx_hal_adc.o ABSOLUTE
    ..\\..\\Drivers\\STM32F4xx_HAL_Driver\\Src\\stm32f4xx_hal_adc_ex.c 0x00000000   Number         0  stm32f4xx_hal_adc_ex.o ABSOLUTE
    ..\\..\\Drivers\\STM32F4xx_HAL_Driver\\Src\\stm32f4xx_hal_can.c 0x00000000   Number         0  stm32f4xx_hal_can.o ABSOLUTE
    ..\\..\\Drivers\\STM32F4xx_HAL_Driver\\Src\\stm32f4xx_hal_cec.c 0x00000000   Number         0  stm32f4xx_hal_cec.o ABSOLUTE
    ..\\..\\Drivers\\STM32F4xx_HAL_Driver\\Src\\stm32f4xx_hal_cortex.c 0x00000000   Number         0  stm32f4xx_hal_cortex.o ABSOLUTE
    ..\\..\\Drivers\\STM32F4xx_HAL_Driver\\Src\\stm32f4xx_hal_crc.c 0x00000000   Number         0  stm32f4xx_hal_crc.o ABSOLUTE
    ..\\..\\Drivers\\STM32F4xx_HAL_Driver\\Src\\stm32f4xx_hal_cryp.c 0x00000000   Number         0  stm32f4xx_hal_cryp.o ABSOLUTE
    ..\\..\\Drivers\\STM32F4xx_HAL_Driver\\Src\\stm32f4xx_hal_cryp_ex.c 0x00000000   Number         0  stm32f4xx_hal_cryp_ex.o ABSOLUTE
    ..\\..\\Drivers\\STM32F4xx_HAL_Driver\\Src\\stm32f4xx_hal_dac.c 0x00000000   Number         0  stm32f4xx_hal_dac.o ABSOLUTE
    ..\\..\\Drivers\\STM32F4xx_HAL_Driver\\Src\\stm32f4xx_hal_dac_ex.c 0x00000000   Number         0  stm32f4xx_hal_dac_ex.o ABSOLUTE
    ..\\..\\Drivers\\STM32F4xx_HAL_Driver\\Src\\stm32f4xx_hal_dcmi.c 0x00000000   Number         0  stm32f4xx_hal_dcmi.o ABSOLUTE
    ..\\..\\Drivers\\STM32F4xx_HAL_Driver\\Src\\stm32f4xx_hal_dcmi_ex.c 0x00000000   Number         0  stm32f4xx_hal_dcmi_ex.o ABSOLUTE
    ..\\..\\Drivers\\STM32F4xx_HAL_Driver\\Src\\stm32f4xx_hal_dma.c 0x00000000   Number         0  stm32f4xx_hal_dma.o ABSOLUTE
    ..\\..\\Drivers\\STM32F4xx_HAL_Driver\\Src\\stm32f4xx_hal_dma2d.c 0x00000000   Number         0  stm32f4xx_hal_dma2d.o ABSOLUTE
    ..\\..\\Drivers\\STM32F4xx_HAL_Driver\\Src\\stm32f4xx_hal_dma_ex.c 0x00000000   Number         0  stm32f4xx_hal_dma_ex.o ABSOLUTE
    ..\\..\\Drivers\\STM32F4xx_HAL_Driver\\Src\\stm32f4xx_hal_dsi.c 0x00000000   Number         0  stm32f4xx_hal_dsi.o ABSOLUTE
    ..\\..\\Drivers\\STM32F4xx_HAL_Driver\\Src\\stm32f4xx_hal_eth.c 0x00000000   Number         0  stm32f4xx_hal_eth.o ABSOLUTE
    ..\\..\\Drivers\\STM32F4xx_HAL_Driver\\Src\\stm32f4xx_hal_flash.c 0x00000000   Number         0  stm32f4xx_hal_flash.o ABSOLUTE
    ..\\..\\Drivers\\STM32F4xx_HAL_Driver\\Src\\stm32f4xx_hal_flash_ex.c 0x00000000   Number         0  stm32f4xx_hal_flash_ex.o ABSOLUTE
    ..\\..\\Drivers\\STM32F4xx_HAL_Driver\\Src\\stm32f4xx_hal_flash_ramfunc.c 0x00000000   Number         0  stm32f4xx_hal_flash_ramfunc.o ABSOLUTE
    ..\\..\\Drivers\\STM32F4xx_HAL_Driver\\Src\\stm32f4xx_hal_fmpi2c.c 0x00000000   Number         0  stm32f4xx_hal_fmpi2c.o ABSOLUTE
    ..\\..\\Drivers\\STM32F4xx_HAL_Driver\\Src\\stm32f4xx_hal_fmpi2c_ex.c 0x00000000   Number         0  stm32f4xx_hal_fmpi2c_ex.o ABSOLUTE
    ..\\..\\Drivers\\STM32F4xx_HAL_Driver\\Src\\stm32f4xx_hal_gpio.c 0x00000000   Number         0  stm32f4xx_hal_gpio.o ABSOLUTE
    ..\\..\\Drivers\\STM32F4xx_HAL_Driver\\Src\\stm32f4xx_hal_hash.c 0x00000000   Number         0  stm32f4xx_hal_hash.o ABSOLUTE
    ..\\..\\Drivers\\STM32F4xx_HAL_Driver\\Src\\stm32f4xx_hal_hash_ex.c 0x00000000   Number         0  stm32f4xx_hal_hash_ex.o ABSOLUTE
    ..\\..\\Drivers\\STM32F4xx_HAL_Driver\\Src\\stm32f4xx_hal_hcd.c 0x00000000   Number         0  stm32f4xx_hal_hcd.o ABSOLUTE
    ..\\..\\Drivers\\STM32F4xx_HAL_Driver\\Src\\stm32f4xx_hal_i2c.c 0x00000000   Number         0  stm32f4xx_hal_i2c.o ABSOLUTE
    ..\\..\\Drivers\\STM32F4xx_HAL_Driver\\Src\\stm32f4xx_hal_i2c_ex.c 0x00000000   Number         0  stm32f4xx_hal_i2c_ex.o ABSOLUTE
    ..\\..\\Drivers\\STM32F4xx_HAL_Driver\\Src\\stm32f4xx_hal_i2s.c 0x00000000   Number         0  stm32f4xx_hal_i2s.o ABSOLUTE
    ..\\..\\Drivers\\STM32F4xx_HAL_Driver\\Src\\stm32f4xx_hal_i2s_ex.c 0x00000000   Number         0  stm32f4xx_hal_i2s_ex.o ABSOLUTE
    ..\\..\\Drivers\\STM32F4xx_HAL_Driver\\Src\\stm32f4xx_hal_irda.c 0x00000000   Number         0  stm32f4xx_hal_irda.o ABSOLUTE
    ..\\..\\Drivers\\STM32F4xx_HAL_Driver\\Src\\stm32f4xx_hal_iwdg.c 0x00000000   Number         0  stm32f4xx_hal_iwdg.o ABSOLUTE
    ..\\..\\Drivers\\STM32F4xx_HAL_Driver\\Src\\stm32f4xx_hal_lptim.c 0x00000000   Number         0  stm32f4xx_hal_lptim.o ABSOLUTE
    ..\\..\\Drivers\\STM32F4xx_HAL_Driver\\Src\\stm32f4xx_hal_ltdc.c 0x00000000   Number         0  stm32f4xx_hal_ltdc.o ABSOLUTE
    ..\\..\\Drivers\\STM32F4xx_HAL_Driver\\Src\\stm32f4xx_hal_ltdc_ex.c 0x00000000   Number         0  stm32f4xx_hal_ltdc_ex.o ABSOLUTE
    ..\\..\\Drivers\\STM32F4xx_HAL_Driver\\Src\\stm32f4xx_hal_nand.c 0x00000000   Number         0  stm32f4xx_hal_nand.o ABSOLUTE
    ..\\..\\Drivers\\STM32F4xx_HAL_Driver\\Src\\stm32f4xx_hal_nor.c 0x00000000   Number         0  stm32f4xx_hal_nor.o ABSOLUTE
    ..\\..\\Drivers\\STM32F4xx_HAL_Driver\\Src\\stm32f4xx_hal_pccard.c 0x00000000   Number         0  stm32f4xx_hal_pccard.o ABSOLUTE
    ..\\..\\Drivers\\STM32F4xx_HAL_Driver\\Src\\stm32f4xx_hal_pcd.c 0x00000000   Number         0  stm32f4xx_hal_pcd.o ABSOLUTE
    ..\\..\\Drivers\\STM32F4xx_HAL_Driver\\Src\\stm32f4xx_hal_pcd_ex.c 0x00000000   Number         0  stm32f4xx_hal_pcd_ex.o ABSOLUTE
    ..\\..\\Drivers\\STM32F4xx_HAL_Driver\\Src\\stm32f4xx_hal_pwr.c 0x00000000   Number         0  stm32f4xx_hal_pwr.o ABSOLUTE
    ..\\..\\Drivers\\STM32F4xx_HAL_Driver\\Src\\stm32f4xx_hal_pwr_ex.c 0x00000000   Number         0  stm32f4xx_hal_pwr_ex.o ABSOLUTE
    ..\\..\\Drivers\\STM32F4xx_HAL_Driver\\Src\\stm32f4xx_hal_qspi.c 0x00000000   Number         0  stm32f4xx_hal_qspi.o ABSOLUTE
    ..\\..\\Drivers\\STM32F4xx_HAL_Driver\\Src\\stm32f4xx_hal_rcc.c 0x00000000   Number         0  stm32f4xx_hal_rcc.o ABSOLUTE
    ..\\..\\Drivers\\STM32F4xx_HAL_Driver\\Src\\stm32f4xx_hal_rcc_ex.c 0x00000000   Number         0  stm32f4xx_hal_rcc_ex.o ABSOLUTE
    ..\\..\\Drivers\\STM32F4xx_HAL_Driver\\Src\\stm32f4xx_hal_rng.c 0x00000000   Number         0  stm32f4xx_hal_rng.o ABSOLUTE
    ..\\..\\Drivers\\STM32F4xx_HAL_Driver\\Src\\stm32f4xx_hal_rtc.c 0x00000000   Number         0  stm32f4xx_hal_rtc.o ABSOLUTE
    ..\\..\\Drivers\\STM32F4xx_HAL_Driver\\Src\\stm32f4xx_hal_rtc_ex.c 0x00000000   Number         0  stm32f4xx_hal_rtc_ex.o ABSOLUTE
    ..\\..\\Drivers\\STM32F4xx_HAL_Driver\\Src\\stm32f4xx_hal_sai.c 0x00000000   Number         0  stm32f4xx_hal_sai.o ABSOLUTE
    ..\\..\\Drivers\\STM32F4xx_HAL_Driver\\Src\\stm32f4xx_hal_sai_ex.c 0x00000000   Number         0  stm32f4xx_hal_sai_ex.o ABSOLUTE
    ..\\..\\Drivers\\STM32F4xx_HAL_Driver\\Src\\stm32f4xx_hal_sd.c 0x00000000   Number         0  stm32f4xx_hal_sd.o ABSOLUTE
    ..\\..\\Drivers\\STM32F4xx_HAL_Driver\\Src\\stm32f4xx_hal_sdram.c 0x00000000   Number         0  stm32f4xx_hal_sdram.o ABSOLUTE
    ..\\..\\Drivers\\STM32F4xx_HAL_Driver\\Src\\stm32f4xx_hal_smartcard.c 0x00000000   Number         0  stm32f4xx_hal_smartcard.o ABSOLUTE
    ..\\..\\Drivers\\STM32F4xx_HAL_Driver\\Src\\stm32f4xx_hal_spdifrx.c 0x00000000   Number         0  stm32f4xx_hal_spdifrx.o ABSOLUTE
    ..\\..\\Drivers\\STM32F4xx_HAL_Driver\\Src\\stm32f4xx_hal_spi.c 0x00000000   Number         0  stm32f4xx_hal_spi.o ABSOLUTE
    ..\\..\\Drivers\\STM32F4xx_HAL_Driver\\Src\\stm32f4xx_hal_sram.c 0x00000000   Number         0  stm32f4xx_hal_sram.o ABSOLUTE
    ..\\..\\Drivers\\STM32F4xx_HAL_Driver\\Src\\stm32f4xx_hal_tim.c 0x00000000   Number         0  stm32f4xx_hal_tim.o ABSOLUTE
    ..\\..\\Drivers\\STM32F4xx_HAL_Driver\\Src\\stm32f4xx_hal_tim_ex.c 0x00000000   Number         0  stm32f4xx_hal_tim_ex.o ABSOLUTE
    ..\\..\\Drivers\\STM32F4xx_HAL_Driver\\Src\\stm32f4xx_hal_uart.c 0x00000000   Number         0  stm32f4xx_hal_uart.o ABSOLUTE
    ..\\..\\Drivers\\STM32F4xx_HAL_Driver\\Src\\stm32f4xx_hal_usart.c 0x00000000   Number         0  stm32f4xx_hal_usart.o ABSOLUTE
    ..\\..\\Drivers\\STM32F4xx_HAL_Driver\\Src\\stm32f4xx_hal_wwdg.c 0x00000000   Number         0  stm32f4xx_hal_wwdg.o ABSOLUTE
    ..\\..\\Drivers\\STM32F4xx_HAL_Driver\\Src\\stm32f4xx_ll_fmc.c 0x00000000   Number         0  stm32f4xx_ll_fmc.o ABSOLUTE
    ..\\..\\Drivers\\STM32F4xx_HAL_Driver\\Src\\stm32f4xx_ll_fsmc.c 0x00000000   Number         0  stm32f4xx_ll_fsmc.o ABSOLUTE
    ..\\..\\Drivers\\STM32F4xx_HAL_Driver\\Src\\stm32f4xx_ll_sdmmc.c 0x00000000   Number         0  stm32f4xx_ll_sdmmc.o ABSOLUTE
    ..\\..\\Drivers\\STM32F4xx_HAL_Driver\\Src\\stm32f4xx_ll_usb.c 0x00000000   Number         0  stm32f4xx_ll_usb.o ABSOLUTE
    ..\\..\\Middlewares\\ST\\STM32_USB_Device_Library\\Class\\MSC\\Src\\usbd_msc.c 0x00000000   Number         0  usbd_msc.o ABSOLUTE
    ..\\..\\Middlewares\\ST\\STM32_USB_Device_Library\\Class\\MSC\\Src\\usbd_msc_bot.c 0x00000000   Number         0  usbd_msc_bot.o ABSOLUTE
    ..\\..\\Middlewares\\ST\\STM32_USB_Device_Library\\Class\\MSC\\Src\\usbd_msc_data.c 0x00000000   Number         0  usbd_msc_data.o ABSOLUTE
    ..\\..\\Middlewares\\ST\\STM32_USB_Device_Library\\Class\\MSC\\Src\\usbd_msc_scsi.c 0x00000000   Number         0  usbd_msc_scsi.o ABSOLUTE
    ..\\..\\Middlewares\\ST\\STM32_USB_Device_Library\\Core\\Src\\usbd_core.c 0x00000000   Number         0  usbd_core.o ABSOLUTE
    ..\\..\\Middlewares\\ST\\STM32_USB_Device_Library\\Core\\Src\\usbd_ctlreq.c 0x00000000   Number         0  usbd_ctlreq.o ABSOLUTE
    ..\\..\\Middlewares\\ST\\STM32_USB_Device_Library\\Core\\Src\\usbd_ioreq.c 0x00000000   Number         0  usbd_ioreq.o ABSOLUTE
    ..\\Src\\Device\\FPGA.c                  0x00000000   Number         0  fpga.o ABSOLUTE
    ..\\Src\\Device\\se3_algo_Aes.c          0x00000000   Number         0  se3_algo_aes.o ABSOLUTE
    ..\\Src\\Device\\se3_algo_AesHmacSha256s.c 0x00000000   Number         0  se3_algo_aeshmacsha256s.o ABSOLUTE
    ..\\Src\\Device\\se3_algo_HmacSha256.c   0x00000000   Number         0  se3_algo_hmacsha256.o ABSOLUTE
    ..\\Src\\Device\\se3_algo_aes256hmacsha256.c 0x00000000   Number         0  se3_algo_aes256hmacsha256.o ABSOLUTE
    ..\\Src\\Device\\se3_algo_sha256.c       0x00000000   Number         0  se3_algo_sha256.o ABSOLUTE
    ..\\Src\\Device\\se3_core.c              0x00000000   Number         0  se3_core.o ABSOLUTE
    ..\\Src\\Device\\se3_dispatcher_core.c   0x00000000   Number         0  se3_dispatcher_core.o ABSOLUTE
    ..\\Src\\Device\\se3_flash.c             0x00000000   Number         0  se3_flash.o ABSOLUTE
    ..\\Src\\Device\\se3_keys.c              0x00000000   Number         0  se3_keys.o ABSOLUTE
    ..\\Src\\Device\\se3_security_core.c     0x00000000   Number         0  se3_security_core.o ABSOLUTE
    ..\\Src\\Device\\se3_sekey.c             0x00000000   Number         0  se3_sekey.o ABSOLUTE
    ..\\Src\\adc.c                           0x00000000   Number         0  adc.o ABSOLUTE
    ..\\Src\\crc.c                           0x00000000   Number         0  crc.o ABSOLUTE
    ..\\Src\\dma.c                           0x00000000   Number         0  dma.o ABSOLUTE
    ..\\Src\\fmc.c                           0x00000000   Number         0  fmc.o ABSOLUTE
    ..\\Src\\gpio.c                          0x00000000   Number         0  gpio.o ABSOLUTE
    ..\\Src\\i2c.c                           0x00000000   Number         0  i2c.o ABSOLUTE
    ..\\Src\\main.c                          0x00000000   Number         0  main.o ABSOLUTE
    ..\\Src\\rng.c                           0x00000000   Number         0  rng.o ABSOLUTE
    ..\\Src\\sdio.c                          0x00000000   Number         0  sdio.o ABSOLUTE
    ..\\Src\\se3_rand.c                      0x00000000   Number         0  se3_rand.o ABSOLUTE
    ..\\Src\\se3_sdio.c                      0x00000000   Number         0  se3_sdio.o ABSOLUTE
    ..\\Src\\spi.c                           0x00000000   Number         0  spi.o ABSOLUTE
    ..\\Src\\stm32f4xx_hal_msp.c             0x00000000   Number         0  stm32f4xx_hal_msp.o ABSOLUTE
    ..\\Src\\stm32f4xx_it.c                  0x00000000   Number         0  stm32f4xx_it.o ABSOLUTE
    ..\\Src\\system_stm32f4xx.c              0x00000000   Number         0  system_stm32f4xx.o ABSOLUTE
    ..\\Src\\tim.c                           0x00000000   Number         0  tim.o ABSOLUTE
    ..\\Src\\usart.c                         0x00000000   Number         0  usart.o ABSOLUTE
    ..\\Src\\usb_device.c                    0x00000000   Number         0  usb_device.o ABSOLUTE
    ..\\Src\\usbd_conf.c                     0x00000000   Number         0  usbd_conf.o ABSOLUTE
    ..\\Src\\usbd_desc.c                     0x00000000   Number         0  usbd_desc.o ABSOLUTE
    ..\\Src\\usbd_storage_if.c               0x00000000   Number         0  usbd_storage_if.o ABSOLUTE
    dc.s                                     0x00000000   Number         0  dc.o ABSOLUTE
    startup_stm32f429nihx.s                  0x00000000   Number         0  startup_stm32f429nihx.o ABSOLUTE
    RESET                                    0x08020040   Section      392  startup_stm32f429nihx.o(RESET)
    !!!main                                  0x080201c8   Section        8  __main.o(!!!main)
    !!!scatter                               0x080201d0   Section       52  __scatter.o(!!!scatter)
    !!dczerorl2                              0x08020204   Section       90  __dczerorl2.o(!!dczerorl2)
    !!handler_zi                             0x08020260   Section       28  __scatter_zi.o(!!handler_zi)
    .ARM.Collect$$libinit$$00000000          0x0802027c   Section        2  libinit.o(.ARM.Collect$$libinit$$00000000)
    .ARM.Collect$$libinit$$00000001          0x0802027e   Section        4  libinit2.o(.ARM.Collect$$libinit$$00000001)
    .ARM.Collect$$libinit$$00000004          0x08020282   Section        0  libinit2.o(.ARM.Collect$$libinit$$00000004)
    .ARM.Collect$$libinit$$00000005          0x08020282   Section        8  libinit2.o(.ARM.Collect$$libinit$$00000005)
    .ARM.Collect$$libinit$$0000000A          0x0802028a   Section        0  libinit2.o(.ARM.Collect$$libinit$$0000000A)
    .ARM.Collect$$libinit$$0000000C          0x0802028a   Section        0  libinit2.o(.ARM.Collect$$libinit$$0000000C)
    .ARM.Collect$$libinit$$0000000E          0x0802028a   Section        0  libinit2.o(.ARM.Collect$$libinit$$0000000E)
    .ARM.Collect$$libinit$$00000011          0x0802028a   Section        0  libinit2.o(.ARM.Collect$$libinit$$00000011)
    .ARM.Collect$$libinit$$00000013          0x0802028a   Section        0  libinit2.o(.ARM.Collect$$libinit$$00000013)
    .ARM.Collect$$libinit$$00000015          0x0802028a   Section        0  libinit2.o(.ARM.Collect$$libinit$$00000015)
    .ARM.Collect$$libinit$$00000017          0x0802028a   Section        0  libinit2.o(.ARM.Collect$$libinit$$00000017)
    .ARM.Collect$$libinit$$00000019          0x0802028a   Section        0  libinit2.o(.ARM.Collect$$libinit$$00000019)
    .ARM.Collect$$libinit$$0000001B          0x0802028a   Section        0  libinit2.o(.ARM.Collect$$libinit$$0000001B)
    .ARM.Collect$$libinit$$0000001D          0x0802028a   Section        0  libinit2.o(.ARM.Collect$$libinit$$0000001D)
    .ARM.Collect$$libinit$$0000001F          0x0802028a   Section        0  libinit2.o(.ARM.Collect$$libinit$$0000001F)
    .ARM.Collect$$libinit$$00000021          0x0802028a   Section        0  libinit2.o(.ARM.Collect$$libinit$$00000021)
    .ARM.Collect$$libinit$$00000023          0x0802028a   Section        0  libinit2.o(.ARM.Collect$$libinit$$00000023)
    .ARM.Collect$$libinit$$00000025          0x0802028a   Section        0  libinit2.o(.ARM.Collect$$libinit$$00000025)
    .ARM.Collect$$libinit$$0000002C          0x0802028a   Section        0  libinit2.o(.ARM.Collect$$libinit$$0000002C)
    .ARM.Collect$$libinit$$0000002E          0x0802028a   Section        0  libinit2.o(.ARM.Collect$$libinit$$0000002E)
    .ARM.Collect$$libinit$$00000030          0x0802028a   Section        0  libinit2.o(.ARM.Collect$$libinit$$00000030)
    .ARM.Collect$$libinit$$00000032          0x0802028a   Section        0  libinit2.o(.ARM.Collect$$libinit$$00000032)
    .ARM.Collect$$libinit$$00000033          0x0802028a   Section        2  libinit2.o(.ARM.Collect$$libinit$$00000033)
    .ARM.Collect$$libshutdown$$00000000      0x0802028c   Section        2  libshutdown.o(.ARM.Collect$$libshutdown$$00000000)
    .ARM.Collect$$libshutdown$$00000002      0x0802028e   Section        0  libshutdown2.o(.ARM.Collect$$libshutdown$$00000002)
    .ARM.Collect$$libshutdown$$00000004      0x0802028e   Section        0  libshutdown2.o(.ARM.Collect$$libshutdown$$00000004)
    .ARM.Collect$$libshutdown$$00000006      0x0802028e   Section        0  libshutdown2.o(.ARM.Collect$$libshutdown$$00000006)
    .ARM.Collect$$libshutdown$$00000009      0x0802028e   Section        0  libshutdown2.o(.ARM.Collect$$libshutdown$$00000009)
    .ARM.Collect$$libshutdown$$0000000C      0x0802028e   Section        0  libshutdown2.o(.ARM.Collect$$libshutdown$$0000000C)
    .ARM.Collect$$libshutdown$$0000000E      0x0802028e   Section        0  libshutdown2.o(.ARM.Collect$$libshutdown$$0000000E)
    .ARM.Collect$$libshutdown$$00000011      0x0802028e   Section        0  libshutdown2.o(.ARM.Collect$$libshutdown$$00000011)
    .ARM.Collect$$libshutdown$$00000012      0x0802028e   Section        2  libshutdown2.o(.ARM.Collect$$libshutdown$$00000012)
    .ARM.Collect$$rtentry$$00000000          0x08020290   Section        0  __rtentry.o(.ARM.Collect$$rtentry$$00000000)
    .ARM.Collect$$rtentry$$00000002          0x08020290   Section        0  __rtentry2.o(.ARM.Collect$$rtentry$$00000002)
    .ARM.Collect$$rtentry$$00000004          0x08020290   Section        6  __rtentry4.o(.ARM.Collect$$rtentry$$00000004)
    .ARM.Collect$$rtentry$$00000009          0x08020296   Section        0  __rtentry2.o(.ARM.Collect$$rtentry$$00000009)
    .ARM.Collect$$rtentry$$0000000A          0x08020296   Section        4  __rtentry2.o(.ARM.Collect$$rtentry$$0000000A)
    .ARM.Collect$$rtentry$$0000000C          0x0802029a   Section        0  __rtentry2.o(.ARM.Collect$$rtentry$$0000000C)
    .ARM.Collect$$rtentry$$0000000D          0x0802029a   Section        8  __rtentry2.o(.ARM.Collect$$rtentry$$0000000D)
    .ARM.Collect$$rtexit$$00000000           0x080202a2   Section        2  rtexit.o(.ARM.Collect$$rtexit$$00000000)
    .ARM.Collect$$rtexit$$00000002           0x080202a4   Section        0  rtexit2.o(.ARM.Collect$$rtexit$$00000002)
    .ARM.Collect$$rtexit$$00000003           0x080202a4   Section        4  rtexit2.o(.ARM.Collect$$rtexit$$00000003)
    .ARM.Collect$$rtexit$$00000004           0x080202a8   Section        6  rtexit2.o(.ARM.Collect$$rtexit$$00000004)
    .emb_text                                0x080202b0   Section        0  maybetermalloc1.o(.emb_text)
    .text                                    0x080202b0   Section       64  startup_stm32f429nihx.o(.text)
    $v0                                      0x080202b0   Number         0  startup_stm32f429nihx.o(.text)
    .text                                    0x080202f0   Section        0  aes256.o(.text)
    B5_rijndaelKeySetupEnc                   0x0802031b   Thumb Code   638  aes256.o(.text)
    B5_rijndaelKeySetupDec                   0x08020599   Thumb Code   460  aes256.o(.text)
    B5_rijndaelEncrypt                       0x08020765   Thumb Code  3152  aes256.o(.text)
    .text                                    0x080228d2   Section        0  pbkdf2.o(.text)
    xor_bb                                   0x080228d3   Thumb Code    24  pbkdf2.o(.text)
    F                                        0x080228eb   Thumb Code   162  pbkdf2.o(.text)
    .text                                    0x080229f0   Section        0  se3_common.o(.text)
    .text                                    0x08022b08   Section        0  sha256.o(.text)
    B5_Sha256ProcessBlock                    0x08022bdb   Thumb Code  8572  sha256.o(.text)
    .text                                    0x0802503a   Section        0  se3_algo_aes.o(.text)
    .text                                    0x08025208   Section        0  se3_algo_aeshmacsha256s.o(.text)
    .text                                    0x080255ca   Section        0  se3_algo_hmacsha256.o(.text)
    .text                                    0x08025658   Section        0  se3_algo_sha256.o(.text)
    .text                                    0x080256d4   Section        0  se3_communication_core.o(.text)
    block_is_magic                           0x08025731   Thumb Code    56  se3_communication_core.o(.text)
    find_magic_index                         0x08025769   Thumb Code    64  se3_communication_core.o(.text)
    se3_storage_range_add                    0x080257a9   Thumb Code   104  se3_communication_core.o(.text)
    handle_req_recv                          0x0802581f   Thumb Code   304  se3_communication_core.o(.text)
    handle_resp_send                         0x08025a63   Thumb Code   300  se3_communication_core.o(.text)
    .text                                    0x08025c20   Section        0  se3_dispatcher_core.o(.text)
    login_cleanup                            0x08025f1b   Thumb Code    76  se3_dispatcher_core.o(.text)
    .text                                    0x080264a0   Section        0  se3_core.o(.text)
    se3_exec                                 0x080264b1   Thumb Code   210  se3_core.o(.text)
    invalid_cmd_handler                      0x08026583   Thumb Code    10  se3_core.o(.text)
    .text                                    0x0802675c   Section        0  se3_flash.o(.text)
    flash_fill                               0x0802675d   Thumb Code    62  se3_flash.o(.text)
    flash_zero                               0x0802679b   Thumb Code    56  se3_flash.o(.text)
    flash_program                            0x080267d3   Thumb Code    70  se3_flash.o(.text)
    flash_erase                              0x08026819   Thumb Code    56  se3_flash.o(.text)
    flash_swap                               0x080268d7   Thumb Code   318  se3_flash.o(.text)
    .text                                    0x08026d20   Section        0  se3_keys.o(.text)
    .text                                    0x08026e70   Section        0  se3_memory.o(.text)
    se3_mem_compact                          0x08026ee5   Thumb Code    76  se3_memory.o(.text)
    se3_mem_defrag                           0x08026f31   Thumb Code   262  se3_memory.o(.text)
    .text                                    0x0802722c   Section        0  se3_security_core.o(.text)
    record_find                              0x08027243   Thumb Code    54  se3_security_core.o(.text)
    .text                                    0x08027844   Section        0  se3_sekey.o(.text)
    .text                                    0x08028424   Section        0  adc.o(.text)
    .text                                    0x080284e0   Section        0  crc.o(.text)
    .text                                    0x08028540   Section        0  dma.o(.text)
    .text                                    0x08028588   Section        0  fmc.o(.text)
    HAL_FMC_MspInit                          0x08028645   Thumb Code   174  fmc.o(.text)
    HAL_FMC_MspDeInit                        0x080286fd   Thumb Code    70  fmc.o(.text)
    .text                                    0x08028774   Section        0  gpio.o(.text)
    .text                                    0x0802894c   Section        0  i2c.o(.text)
    .text                                    0x080289fc   Section        0  main.o(.text)
    .text                                    0x08028b0c   Section        0  rng.o(.text)
    .text                                    0x08028b6c   Section        0  sdio.o(.text)
    .text                                    0x08028d18   Section        0  se3_rand.o(.text)
    .text                                    0x08028da0   Section        0  se3_sdio.o(.text)
    .text                                    0x08028e68   Section        0  spi.o(.text)
    .text                                    0x08028f2c   Section        0  stm32f4xx_hal_msp.o(.text)
    .text                                    0x08028f40   Section        0  stm32f4xx_it.o(.text)
    .text                                    0x08028f84   Section        0  system_stm32f4xx.o(.text)
    .text                                    0x080290a0   Section        0  tim.o(.text)
    .text                                    0x08029168   Section        0  usart.o(.text)
    .text                                    0x08029340   Section        0  usb_device.o(.text)
    .text                                    0x08029374   Section        0  usbd_conf.o(.text)
    .text                                    0x08029778   Section        0  usbd_desc.o(.text)
    .text                                    0x08029868   Section        0  usbd_storage_if.o(.text)
    STORAGE_Init_HS                          0x08029869   Thumb Code     6  usbd_storage_if.o(.text)
    STORAGE_GetCapacity_HS                   0x0802986f   Thumb Code    26  usbd_storage_if.o(.text)
    STORAGE_IsReady_HS                       0x08029889   Thumb Code    18  usbd_storage_if.o(.text)
    STORAGE_IsWriteProtected_HS              0x0802989b   Thumb Code     6  usbd_storage_if.o(.text)
    STORAGE_Read_HS                          0x080298a1   Thumb Code    46  usbd_storage_if.o(.text)
    STORAGE_Write_HS                         0x080298cf   Thumb Code    36  usbd_storage_if.o(.text)
    STORAGE_GetMaxLun_HS                     0x080298f3   Thumb Code     4  usbd_storage_if.o(.text)
    .text                                    0x080298f8   Section        0  stm32f4xx_hal.o(.text)
    .text                                    0x08029ac0   Section        0  stm32f4xx_hal_adc.o(.text)
    ADC_Init                                 0x08029ac1   Thumb Code   362  stm32f4xx_hal_adc.o(.text)
    ADC_DMAError                             0x0802a219   Thumb Code    26  stm32f4xx_hal_adc.o(.text)
    ADC_DMAHalfConvCplt                      0x0802a235   Thumb Code    14  stm32f4xx_hal_adc.o(.text)
    ADC_DMAConvCplt                          0x0802a243   Thumb Code   110  stm32f4xx_hal_adc.o(.text)
    .text                                    0x0802a6a0   Section        0  stm32f4xx_hal_adc_ex.o(.text)
    ADC_MultiModeDMAError                    0x0802aa67   Thumb Code    26  stm32f4xx_hal_adc_ex.o(.text)
    ADC_MultiModeDMAHalfConvCplt             0x0802aa81   Thumb Code    14  stm32f4xx_hal_adc_ex.o(.text)
    ADC_MultiModeDMAConvCplt                 0x0802aa8f   Thumb Code   130  stm32f4xx_hal_adc_ex.o(.text)
    .text                                    0x0802af68   Section        0  stm32f4xx_hal_cortex.o(.text)
    NVIC_SetPriority                         0x0802af69   Thumb Code    32  stm32f4xx_hal_cortex.o(.text)
    NVIC_GetPriorityGrouping                 0x0802b265   Thumb Code    12  stm32f4xx_hal_cortex.o(.text)
    .text                                    0x0802b284   Section        0  stm32f4xx_hal_crc.o(.text)
    .text                                    0x0802b364   Section        0  stm32f4xx_hal_dma.o(.text)
    DMA_CalcBaseAndBitshift                  0x0802b365   Thumb Code    46  stm32f4xx_hal_dma.o(.text)
    DMA_SetConfig                            0x0802b477   Thumb Code    44  stm32f4xx_hal_dma.o(.text)
    .text                                    0x0802b97c   Section        0  stm32f4xx_hal_flash.o(.text)
    FLASH_SetErrorCode                       0x0802b97d   Thumb Code   172  stm32f4xx_hal_flash.o(.text)
    FLASH_Program_DoubleWord                 0x0802ba8f   Thumb Code    44  stm32f4xx_hal_flash.o(.text)
    FLASH_Program_Word                       0x0802babb   Thumb Code    40  stm32f4xx_hal_flash.o(.text)
    FLASH_Program_HalfWord                   0x0802bae3   Thumb Code    40  stm32f4xx_hal_flash.o(.text)
    FLASH_Program_Byte                       0x0802bb0b   Thumb Code    36  stm32f4xx_hal_flash.o(.text)
    .text                                    0x0802be04   Section        0  stm32f4xx_hal_flash_ex.o(.text)
    FLASH_MassErase                          0x0802bee5   Thumb Code    98  stm32f4xx_hal_flash_ex.o(.text)
    FLASH_OB_BOR_LevelConfig                 0x0802c069   Thumb Code    30  stm32f4xx_hal_flash_ex.o(.text)
    FLASH_OB_UserConfig                      0x0802c087   Thumb Code    58  stm32f4xx_hal_flash_ex.o(.text)
    FLASH_OB_RDP_LevelConfig                 0x0802c0c1   Thumb Code    28  stm32f4xx_hal_flash_ex.o(.text)
    FLASH_OB_DisableWRP                      0x0802c0dd   Thumb Code   146  stm32f4xx_hal_flash_ex.o(.text)
    FLASH_OB_EnableWRP                       0x0802c16f   Thumb Code   150  stm32f4xx_hal_flash_ex.o(.text)
    FLASH_OB_GetBOR                          0x0802c295   Thumb Code    10  stm32f4xx_hal_flash_ex.o(.text)
    FLASH_OB_GetUser                         0x0802c29f   Thumb Code    10  stm32f4xx_hal_flash_ex.o(.text)
    FLASH_OB_GetRDP                          0x0802c2a9   Thumb Code    34  stm32f4xx_hal_flash_ex.o(.text)
    FLASH_OB_GetWRP                          0x0802c2cb   Thumb Code     8  stm32f4xx_hal_flash_ex.o(.text)
    FLASH_OB_BootConfig                      0x0802c2f5   Thumb Code    42  stm32f4xx_hal_flash_ex.o(.text)
    FLASH_OB_DisablePCROP                    0x0802c31f   Thumb Code    98  stm32f4xx_hal_flash_ex.o(.text)
    FLASH_OB_EnablePCROP                     0x0802c381   Thumb Code   104  stm32f4xx_hal_flash_ex.o(.text)
    .text                                    0x0802c484   Section        0  stm32f4xx_hal_gpio.o(.text)
    .text                                    0x0802c860   Section        0  stm32f4xx_hal_i2c.o(.text)
    I2C_IsAcknowledgeFailed                  0x0802c9bf   Thumb Code    52  stm32f4xx_hal_i2c.o(.text)
    I2C_WaitOnBTFFlagUntilTimeout            0x0802c9f3   Thumb Code    90  stm32f4xx_hal_i2c.o(.text)
    I2C_WaitOnTXEFlagUntilTimeout            0x0802ca4d   Thumb Code    90  stm32f4xx_hal_i2c.o(.text)
    I2C_WaitOnMasterAddressFlagUntilTimeout  0x0802caa7   Thumb Code   178  stm32f4xx_hal_i2c.o(.text)
    I2C_WaitOnFlagUntilTimeout               0x0802cb59   Thumb Code   230  stm32f4xx_hal_i2c.o(.text)
    I2C_MasterRequestWrite                   0x0802cc3f   Thumb Code   186  stm32f4xx_hal_i2c.o(.text)
    I2C_WaitOnRXNEFlagUntilTimeout           0x0802ce39   Thumb Code   116  stm32f4xx_hal_i2c.o(.text)
    I2C_MasterRequestRead                    0x0802cead   Thumb Code   298  stm32f4xx_hal_i2c.o(.text)
    I2C_WaitOnSTOPFlagUntilTimeout           0x0802d3ab   Thumb Code    88  stm32f4xx_hal_i2c.o(.text)
    I2C_DMAError                             0x0802dd69   Thumb Code    50  stm32f4xx_hal_i2c.o(.text)
    I2C_DMAMasterTransmitCplt                0x0802dd9d   Thumb Code    88  stm32f4xx_hal_i2c.o(.text)
    I2C_DMAMasterReceiveCplt                 0x0802df59   Thumb Code    90  stm32f4xx_hal_i2c.o(.text)
    I2C_DMASlaveTransmitCplt                 0x0802e185   Thumb Code    98  stm32f4xx_hal_i2c.o(.text)
    I2C_DMASlaveReceiveCplt                  0x0802e327   Thumb Code   128  stm32f4xx_hal_i2c.o(.text)
    I2C_RequestMemoryWrite                   0x0802e47d   Thumb Code   208  stm32f4xx_hal_i2c.o(.text)
    I2C_RequestMemoryRead                    0x0802e67d   Thumb Code   344  stm32f4xx_hal_i2c.o(.text)
    I2C_DMAMemTransmitCplt                   0x0802ecbf   Thumb Code    88  stm32f4xx_hal_i2c.o(.text)
    I2C_DMAMemReceiveCplt                    0x0802ee53   Thumb Code    90  stm32f4xx_hal_i2c.o(.text)
    I2C_SlaveReceive_BTF                     0x0802f1c5   Thumb Code    30  stm32f4xx_hal_i2c.o(.text)
    I2C_SlaveReceive_RXNE                    0x0802f1e3   Thumb Code    84  stm32f4xx_hal_i2c.o(.text)
    I2C_SlaveTransmit_BTF                    0x0802f237   Thumb Code    28  stm32f4xx_hal_i2c.o(.text)
    I2C_SlaveTransmit_TXE                    0x0802f253   Thumb Code    82  stm32f4xx_hal_i2c.o(.text)
    I2C_Slave_STOPF                          0x0802f2a7   Thumb Code   136  stm32f4xx_hal_i2c.o(.text)
    I2C_Slave_ADDR                           0x0802f331   Thumb Code    54  stm32f4xx_hal_i2c.o(.text)
    I2C_MasterReceive_BTF                    0x0802f367   Thumb Code   300  stm32f4xx_hal_i2c.o(.text)
    I2C_MasterReceive_RXNE                   0x0802f493   Thumb Code   248  stm32f4xx_hal_i2c.o(.text)
    I2C_MasterTransmit_BTF                   0x0802f58b   Thumb Code   178  stm32f4xx_hal_i2c.o(.text)
    I2C_MasterTransmit_TXE                   0x0802f63d   Thumb Code    42  stm32f4xx_hal_i2c.o(.text)
    I2C_Slave_AF                             0x0802f7dd   Thumb Code   176  stm32f4xx_hal_i2c.o(.text)
    .text                                    0x0802f9f4   Section        0  stm32f4xx_hal_nor.o(.text)
    .text                                    0x0803001c   Section        0  stm32f4xx_hal_pcd.o(.text)
    PCD_WriteEmptyTxFifo                     0x08030207   Thumb Code   162  stm32f4xx_hal_pcd.o(.text)
    .text                                    0x08030c04   Section        0  stm32f4xx_hal_pcd_ex.o(.text)
    .text                                    0x08030c60   Section        0  stm32f4xx_hal_rcc.o(.text)
    .text                                    0x08031540   Section        0  stm32f4xx_hal_rng.o(.text)
    .text                                    0x08031730   Section        0  stm32f4xx_hal_sd.o(.text)
    SD_CmdResp1Error                         0x08031731   Thumb Code   380  stm32f4xx_hal_sd.o(.text)
    SD_Select_Deselect                       0x080318ad   Thumb Code    56  stm32f4xx_hal_sd.o(.text)
    SD_CmdResp2Error                         0x08031bd9   Thumb Code    70  stm32f4xx_hal_sd.o(.text)
    SD_CmdResp6Error                         0x08031c1f   Thumb Code   172  stm32f4xx_hal_sd.o(.text)
    SD_Initialize_Cards                      0x08031ccb   Thumb Code   250  stm32f4xx_hal_sd.o(.text)
    SD_CmdResp3Error                         0x08031dc5   Thumb Code    50  stm32f4xx_hal_sd.o(.text)
    SD_CmdResp7Error                         0x08031df7   Thumb Code   102  stm32f4xx_hal_sd.o(.text)
    SD_CmdError                              0x08031e5d   Thumb Code    54  stm32f4xx_hal_sd.o(.text)
    SD_PowerON                               0x08031e93   Thumb Code   348  stm32f4xx_hal_sd.o(.text)
    SD_PowerOFF                              0x0803208f   Thumb Code    16  stm32f4xx_hal_sd.o(.text)
    SD_IsCardProgramming                     0x080322e3   Thumb Code   464  stm32f4xx_hal_sd.o(.text)
    SD_DMA_RxError                           0x0803273f   Thumb Code    14  stm32f4xx_hal_sd.o(.text)
    SD_DMA_RxCplt                            0x0803274f   Thumb Code    38  stm32f4xx_hal_sd.o(.text)
    SD_DMA_TxError                           0x08032889   Thumb Code    14  stm32f4xx_hal_sd.o(.text)
    SD_DMA_TxCplt                            0x08032899   Thumb Code    32  stm32f4xx_hal_sd.o(.text)
    SD_SendStatus                            0x08032a49   Thumb Code    80  stm32f4xx_hal_sd.o(.text)
    SD_GetState                              0x08032a99   Thumb Code    30  stm32f4xx_hal_sd.o(.text)
    SD_FindSCR                               0x08032d91   Thumb Code   370  stm32f4xx_hal_sd.o(.text)
    SD_WideBus_Disable                       0x08032f03   Thumb Code   156  stm32f4xx_hal_sd.o(.text)
    SD_WideBus_Enable                        0x08032f9f   Thumb Code   150  stm32f4xx_hal_sd.o(.text)
    .text                                    0x08033454   Section        0  stm32f4xx_hal_smartcard.o(.text)
    SMARTCARD_SetConfig                      0x08033455   Thumb Code   496  stm32f4xx_hal_smartcard.o(.text)
    SMARTCARD_WaitOnFlagUntilTimeout         0x08033737   Thumb Code   208  stm32f4xx_hal_smartcard.o(.text)
    SMARTCARD_DMAError                       0x08033a0f   Thumb Code    34  stm32f4xx_hal_smartcard.o(.text)
    SMARTCARD_DMATransmitCplt                0x08033a31   Thumb Code    34  stm32f4xx_hal_smartcard.o(.text)
    SMARTCARD_DMAReceiveCplt                 0x08033ad5   Thumb Code    36  stm32f4xx_hal_smartcard.o(.text)
    SMARTCARD_EndTransmit_IT                 0x08033b71   Thumb Code    44  stm32f4xx_hal_smartcard.o(.text)
    SMARTCARD_Transmit_IT                    0x08033b9d   Thumb Code    70  stm32f4xx_hal_smartcard.o(.text)
    SMARTCARD_Receive_IT                     0x08033be3   Thumb Code    98  stm32f4xx_hal_smartcard.o(.text)
    .text                                    0x08033d88   Section        0  stm32f4xx_hal_spi.o(.text)
    SPI_WaitFlagStateUntilTimeout            0x08033e63   Thumb Code   160  stm32f4xx_hal_spi.o(.text)
    SPI_CheckFlag_BSY                        0x08033f03   Thumb Code    40  stm32f4xx_hal_spi.o(.text)
    SPI_CheckForDisablingSPI                 0x080340c1   Thumb Code    42  stm32f4xx_hal_spi.o(.text)
    SPI_CloseTx_ISR                          0x08034557   Thumb Code    96  stm32f4xx_hal_spi.o(.text)
    SPI_TxISR_8BIT                           0x080345b7   Thumb Code    54  stm32f4xx_hal_spi.o(.text)
    SPI_TxISR_16BIT                          0x080345ed   Thumb Code    56  stm32f4xx_hal_spi.o(.text)
    SPI_CloseRx_ISR                          0x080346fd   Thumb Code    92  stm32f4xx_hal_spi.o(.text)
    SPI_RxISR_8BITCRC                        0x08034759   Thumb Code    26  stm32f4xx_hal_spi.o(.text)
    SPI_RxISR_8BIT                           0x08034773   Thumb Code    76  stm32f4xx_hal_spi.o(.text)
    SPI_RxISR_16BITCRC                       0x080347bf   Thumb Code    40  stm32f4xx_hal_spi.o(.text)
    SPI_RxISR_16BIT                          0x080347e7   Thumb Code    78  stm32f4xx_hal_spi.o(.text)
    SPI_CloseRxTx_ISR                        0x08034837   Thumb Code   138  stm32f4xx_hal_spi.o(.text)
    SPI_2linesTxISR_8BIT                     0x080348c1   Thumb Code    70  stm32f4xx_hal_spi.o(.text)
    SPI_2linesRxISR_8BITCRC                  0x08034907   Thumb Code    42  stm32f4xx_hal_spi.o(.text)
    SPI_2linesRxISR_8BIT                     0x08034931   Thumb Code    66  stm32f4xx_hal_spi.o(.text)
    SPI_2linesTxISR_16BIT                    0x08034973   Thumb Code    72  stm32f4xx_hal_spi.o(.text)
    SPI_2linesRxISR_16BITCRC                 0x080349bb   Thumb Code    40  stm32f4xx_hal_spi.o(.text)
    SPI_2linesRxISR_16BIT                    0x080349e3   Thumb Code    68  stm32f4xx_hal_spi.o(.text)
    SPI_DMAError                             0x08034bfd   Thumb Code    40  stm32f4xx_hal_spi.o(.text)
    SPI_DMATransmitCplt                      0x08034c25   Thumb Code   114  stm32f4xx_hal_spi.o(.text)
    SPI_DMAHalfTransmitCplt                  0x08034c99   Thumb Code    14  stm32f4xx_hal_spi.o(.text)
    SPI_DMAReceiveCplt                       0x08034d8b   Thumb Code   162  stm32f4xx_hal_spi.o(.text)
    SPI_DMAHalfReceiveCplt                   0x08034e2f   Thumb Code    14  stm32f4xx_hal_spi.o(.text)
    SPI_DMATransmitReceiveCplt               0x08034e3d   Thumb Code   206  stm32f4xx_hal_spi.o(.text)
    SPI_DMAHalfTransmitReceiveCplt           0x08034f0d   Thumb Code    14  stm32f4xx_hal_spi.o(.text)
    .text                                    0x080352e8   Section        0  stm32f4xx_hal_tim.o(.text)
    TIM_DMAPeriodElapsedCplt                 0x080354e3   Thumb Code    20  stm32f4xx_hal_tim.o(.text)
    TIM_OC4_SetConfig                        0x08036bab   Thumb Code    88  stm32f4xx_hal_tim.o(.text)
    TIM_OC3_SetConfig                        0x08036c03   Thumb Code   122  stm32f4xx_hal_tim.o(.text)
    TIM_OC1_SetConfig                        0x08036ced   Thumb Code   102  stm32f4xx_hal_tim.o(.text)
    TIM_TI4_SetConfig                        0x08036dc7   Thumb Code    64  stm32f4xx_hal_tim.o(.text)
    TIM_TI3_SetConfig                        0x08036e07   Thumb Code    60  stm32f4xx_hal_tim.o(.text)
    TIM_TI2_SetConfig                        0x08036e43   Thumb Code    62  stm32f4xx_hal_tim.o(.text)
    TIM_DMATriggerCplt                       0x0803721f   Thumb Code    20  stm32f4xx_hal_tim.o(.text)
    TIM_ETR_SetConfig                        0x08037645   Thumb Code    24  stm32f4xx_hal_tim.o(.text)
    TIM_ITRx_SetConfig                       0x08037759   Thumb Code    20  stm32f4xx_hal_tim.o(.text)
    TIM_TI1_ConfigInputStage                 0x0803776d   Thumb Code    42  stm32f4xx_hal_tim.o(.text)
    TIM_TI2_ConfigInputStage                 0x08037797   Thumb Code    44  stm32f4xx_hal_tim.o(.text)
    TIM_SlaveTimer_SetConfig                 0x0803790d   Thumb Code   164  stm32f4xx_hal_tim.o(.text)
    .text                                    0x08037ae0   Section        0  stm32f4xx_hal_tim_ex.o(.text)
    TIM_CCxNChannelCmd                       0x08037d5f   Thumb Code    28  stm32f4xx_hal_tim_ex.o(.text)
    .text                                    0x08038860   Section        0  stm32f4xx_hal_uart.o(.text)
    UART_SetConfig                           0x08038861   Thumb Code   864  stm32f4xx_hal_uart.o(.text)
    UART_WaitOnFlagUntilTimeout              0x08038e0d   Thumb Code   260  stm32f4xx_hal_uart.o(.text)
    UART_DMAError                            0x0803916b   Thumb Code    38  stm32f4xx_hal_uart.o(.text)
    UART_DMATxHalfCplt                       0x08039193   Thumb Code    14  stm32f4xx_hal_uart.o(.text)
    UART_DMATransmitCplt                     0x080391a3   Thumb Code    54  stm32f4xx_hal_uart.o(.text)
    UART_DMARxHalfCplt                       0x08039261   Thumb Code    14  stm32f4xx_hal_uart.o(.text)
    UART_DMAReceiveCplt                      0x08039271   Thumb Code    46  stm32f4xx_hal_uart.o(.text)
    UART_EndTransmit_IT                      0x0803940d   Thumb Code    32  stm32f4xx_hal_uart.o(.text)
    UART_Transmit_IT                         0x0803942d   Thumb Code   104  stm32f4xx_hal_uart.o(.text)
    UART_Receive_IT                          0x08039495   Thumb Code   166  stm32f4xx_hal_uart.o(.text)
    .text                                    0x080397e0   Section        0  stm32f4xx_ll_fmc.o(.text)
    .text                                    0x08039d70   Section        0  stm32f4xx_ll_sdmmc.o(.text)
    .text                                    0x08039e64   Section        0  stm32f4xx_ll_usb.o(.text)
    USB_CoreReset                            0x08039e65   Thumb Code    70  stm32f4xx_ll_usb.o(.text)
    .text                                    0x0803b37c   Section        0  usbd_core.o(.text)
    .text                                    0x0803b6d4   Section        0  usbd_ctlreq.o(.text)
    USBD_ClrFeature                          0x0803b6ed   Thumb Code    68  usbd_ctlreq.o(.text)
    USBD_SetFeature                          0x0803b731   Thumb Code    36  usbd_ctlreq.o(.text)
    USBD_GetStatus                           0x0803b755   Thumb Code    68  usbd_ctlreq.o(.text)
    USBD_GetConfig                           0x0803b799   Thumb Code    80  usbd_ctlreq.o(.text)
    USBD_SetConfig                           0x0803b7e9   Thumb Code   218  usbd_ctlreq.o(.text)
    USBD_SetAddress                          0x0803b8c3   Thumb Code    84  usbd_ctlreq.o(.text)
    USBD_GetDescriptor                       0x0803b917   Thumb Code   328  usbd_ctlreq.o(.text)
    USBD_GetLen                              0x0803bc9d   Thumb Code    20  usbd_ctlreq.o(.text)
    .text                                    0x0803bd02   Section        0  usbd_ioreq.o(.text)
    .text                                    0x0803bdc4   Section        0  usbd_msc.o(.text)
    .text                                    0x0803bff0   Section        0  usbd_msc_bot.o(.text)
    MSC_BOT_SendData                         0x0803c0ef   Thumb Code    88  usbd_msc_bot.o(.text)
    MSC_BOT_Abort                            0x0803c147   Thumb Code    72  usbd_msc_bot.o(.text)
    MSC_BOT_CBW_Decode                       0x0803c18f   Thumb Code   232  usbd_msc_bot.o(.text)
    .text                                    0x0803c2fc   Section        0  usbd_msc_scsi.o(.text)
    SCSI_CheckAddressRange                   0x0803c349   Thumb Code    54  usbd_msc_scsi.o(.text)
    SCSI_Verify10                            0x0803c37f   Thumb Code    84  usbd_msc_scsi.o(.text)
    SCSI_ProcessWrite                        0x0803c3d3   Thumb Code   214  usbd_msc_scsi.o(.text)
    SCSI_Write10                             0x0803c4a9   Thumb Code   328  usbd_msc_scsi.o(.text)
    SCSI_ProcessRead                         0x0803c5f1   Thumb Code   184  usbd_msc_scsi.o(.text)
    SCSI_Read10                              0x0803c6a9   Thumb Code   260  usbd_msc_scsi.o(.text)
    SCSI_ReadCapacity10                      0x0803c7ad   Thumb Code   148  usbd_msc_scsi.o(.text)
    SCSI_ReadFormatCapacity                  0x0803c841   Thumb Code   138  usbd_msc_scsi.o(.text)
    SCSI_ModeSense10                         0x0803c8cb   Thumb Code    40  usbd_msc_scsi.o(.text)
    SCSI_ModeSense6                          0x0803c8f3   Thumb Code    40  usbd_msc_scsi.o(.text)
    SCSI_StartStopUnit                       0x0803c91b   Thumb Code    16  usbd_msc_scsi.o(.text)
    SCSI_Inquiry                             0x0803c92b   Thumb Code    74  usbd_msc_scsi.o(.text)
    SCSI_RequestSense                        0x0803c975   Thumb Code   158  usbd_msc_scsi.o(.text)
    SCSI_TestUnitReady                       0x0803ca13   Thumb Code    90  usbd_msc_scsi.o(.text)
    .text                                    0x0803cb60   Section        0  h1_alloc.o(.text)
    .text                                    0x0803cbbe   Section        0  h1_free.o(.text)
    .text                                    0x0803cc0c   Section      238  lludivv7m.o(.text)
    .text                                    0x0803ccfa   Section        0  memcmp.o(.text)
    .text                                    0x0803cd52   Section      138  rt_memcpy_v6.o(.text)
    .text                                    0x0803cddc   Section      132  rt_memmove_v6.o(.text)
    .text                                    0x0803ce60   Section      100  rt_memcpy_w.o(.text)
    .text                                    0x0803cec4   Section       16  aeabi_memset.o(.text)
    .text                                    0x0803ced4   Section       68  rt_memclr.o(.text)
    .text                                    0x0803cf18   Section       78  rt_memclr_w.o(.text)
    .text                                    0x0803cf66   Section        0  heapauxi.o(.text)
    .text                                    0x0803cf6c   Section        8  rt_heap_descriptor_intlibspace.o(.text)
    .text                                    0x0803cf74   Section        0  hguard.o(.text)
    .text                                    0x0803cf78   Section        0  init_alloc.o(.text)
    .text                                    0x0803d002   Section        0  h1_init.o(.text)
    .text                                    0x0803d010   Section      122  rt_memmove_w.o(.text)
    .text                                    0x0803d08c   Section        8  libspace.o(.text)
    .text                                    0x0803d094   Section        0  h1_extend.o(.text)
    .text                                    0x0803d0c8   Section        0  defsig_rtmem_outer.o(.text)
    .text                                    0x0803d0d6   Section        2  use_no_semi.o(.text)
    .text                                    0x0803d0d8   Section       74  sys_stackheap_outer.o(.text)
    .text                                    0x0803d0d8   Section        0  indicate_semi.o(.text)
    .text                                    0x0803d122   Section        0  exit.o(.text)
    .text                                    0x0803d134   Section        0  defsig_exit.o(.text)
    .text                                    0x0803d140   Section        0  defsig_rtmem_inner.o(.text)
    .text                                    0x0803d190   Section        0  sys_exit.o(.text)
    .text                                    0x0803d19c   Section        0  defsig_general.o(.text)
    .text                                    0x0803d1ce   Section        0  sys_wrch.o(.text)
    x$fpl$fpinit                             0x0803d1dc   Section       10  fpinit.o(x$fpl$fpinit)
    $v0                                      0x0803d1dc   Number         0  fpinit.o(x$fpl$fpinit)
    .constdata                               0x0803d1e8   Section    10280  aes256.o(.constdata)
    .constdata                               0x0803fa10   Section       32  se3_common.o(.constdata)
    .constdata                               0x0803fa30   Section       32  se3_communication_core.o(.constdata)
    .constdata                               0x0803fa50   Section       24  system_stm32f4xx.o(.constdata)
    .constdata                               0x0803fa68   Section       36  usbd_storage_if.o(.constdata)
    .constdata                               0x0803fa8c   Section        8  stm32f4xx_hal_dma.o(.constdata)
    flagBitshiftOffset                       0x0803fa8c   Data           8  stm32f4xx_hal_dma.o(.constdata)
    .constdata                               0x0803fa94   Section       16  stm32f4xx_hal_rcc.o(.constdata)
    .constdata                               0x0803faa4   Section       23  usbd_msc_data.o(.constdata)
    .data                                    0x20000000   Section        2  se3_common.o(.data)
    .data                                    0x20000004   Section      194  se3_dispatcher_core.o(.data)
    handlers                                 0x20000004   Data         192  se3_dispatcher_core.o(.data)
    .data                                    0x200000c8   Section      208  se3_security_core.o(.data)
    .data                                    0x20000198   Section        8  crc.o(.data)
    .data                                    0x200001a0   Section        8  fmc.o(.data)
    FMC_Initialized                          0x200001a0   Data           4  fmc.o(.data)
    FMC_DeInitialized                        0x200001a4   Data           4  fmc.o(.data)
    .data                                    0x200001a8   Section        4  system_stm32f4xx.o(.data)
    .data                                    0x200001ac   Section       52  usbd_desc.o(.data)
    .data                                    0x200001e0   Section       36  usbd_storage_if.o(.data)
    .data                                    0x20000204   Section        4  stm32f4xx_hal.o(.data)
    .data                                    0x20000208   Section        4  stm32f4xx_ll_usb.o(.data)
    debug                                    0x20000208   Data           4  stm32f4xx_ll_usb.o(.data)
    .data                                    0x2000020c   Section        1  usbd_ctlreq.o(.data)
    cfgidx                                   0x2000020c   Data           1  usbd_ctlreq.o(.data)
    .data                                    0x20000210   Section      162  usbd_msc.o(.data)
    .bss                                     0x200002b4   Section       33  se3_common.o(.bss)
    .bss                                     0x200002d8   Section    16628  se3_communication_core.o(.bss)
    .bss                                     0x200043cc   Section     1228  se3_dispatcher_core.o(.bss)
    .bss                                     0x20004898   Section    33168  se3_core.o(.bss)
    .bss                                     0x2000ca28   Section       28  se3_flash.o(.bss)
    .bss                                     0x2000ca44   Section      588  se3_security_core.o(.bss)
    .bss                                     0x2000cc90   Section       16  se3_sekey.o(.bss)
    .bss                                     0x2000cca0   Section       72  adc.o(.bss)
    .bss                                     0x2000cce8   Section      152  fmc.o(.bss)
    .bss                                     0x2000cd80   Section       68  i2c.o(.bss)
    .bss                                     0x2000cdc4   Section       12  rng.o(.bss)
    .bss                                     0x2000cdd0   Section      360  sdio.o(.bss)
    .bss                                     0x2000cf38   Section       88  spi.o(.bss)
    .bss                                     0x2000cf90   Section       60  tim.o(.bss)
    .bss                                     0x2000cfcc   Section      144  usart.o(.bss)
    .bss                                     0x2000d05c   Section      548  usb_device.o(.bss)
    .bss                                     0x2000d280   Section      952  usbd_conf.o(.bss)
    .bss                                     0x2000d638   Section      512  usbd_desc.o(.bss)
    .bss                                     0x2000d838   Section       32  stm32f4xx_hal_flash.o(.bss)
    .bss                                     0x2000d858   Section       96  libspace.o(.bss)
    HEAP                                     0x2000d8b8   Section    77824  startup_stm32f429nihx.o(HEAP)
    Heap_Mem                                 0x2000d8b8   Data       77824  startup_stm32f429nihx.o(HEAP)
    STACK                                    0x200208b8   Section    16384  startup_stm32f429nihx.o(STACK)
    Stack_Mem                                0x200208b8   Data       16384  startup_stm32f429nihx.o(STACK)
    __initial_sp                             0x200248b8   Data           0  startup_stm32f429nihx.o(STACK)

    Global Symbols

    Symbol Name                              Value     Ov Type        Size  Object(Section)

    BuildAttributes$$THM_ISAv4$E$P$D$K$B$S$7EM$VFPi3$EXTD16$VFPS$VFMA$PE$A:L22UL41UL21$X:L11$S22US41US21$IEEE1$IW$USESV6$~STKCKD$USESV7$~SHL$OTIME$ROPI$EBA8$UX$STANDARDLIB$REQ8$PRES8$EABIv2 0x00000000   Number         0  anon$$obj.o ABSOLUTE
    __ARM_use_no_argv                        0x00000000   Number         0  main.o ABSOLUTE
    __ARM_exceptions_init                     - Undefined Weak Reference
    __alloca_initialize                       - Undefined Weak Reference
    __arm_fini_                               - Undefined Weak Reference
    __arm_preinit_                            - Undefined Weak Reference
    __cpp_initialize__aeabi_                  - Undefined Weak Reference
    __cxa_finalize                            - Undefined Weak Reference
    __rt_locale                               - Undefined Weak Reference
    __sigvec_lookup                           - Undefined Weak Reference
    __user_heap_extent                        - Undefined Weak Reference
    _atexit_init                              - Undefined Weak Reference
    _call_atexit_fns                          - Undefined Weak Reference
    _clock_init                               - Undefined Weak Reference
    _fp_trap_init                             - Undefined Weak Reference
    _fp_trap_shutdown                         - Undefined Weak Reference
    _get_lc_collate                           - Undefined Weak Reference
    _get_lc_ctype                             - Undefined Weak Reference
    _get_lc_monetary                          - Undefined Weak Reference
    _get_lc_numeric                           - Undefined Weak Reference
    _get_lc_time                              - Undefined Weak Reference
    _getenv_init                              - Undefined Weak Reference
    _handle_redirection                       - Undefined Weak Reference
    _initio                                   - Undefined Weak Reference
    _mutex_acquire                            - Undefined Weak Reference
    _mutex_free                               - Undefined Weak Reference
    _mutex_release                            - Undefined Weak Reference
    _rand_init                                - Undefined Weak Reference
    _signal_finish                            - Undefined Weak Reference
    _signal_init                              - Undefined Weak Reference
    _terminateio                              - Undefined Weak Reference
    __Vectors_Size                           0x00000188   Number         0  startup_stm32f429nihx.o ABSOLUTE
    __Vectors                                0x08020040   Data           4  startup_stm32f429nihx.o(RESET)
    __Vectors_End                            0x080201c8   Data           0  startup_stm32f429nihx.o(RESET)
    __main                                   0x080201c9   Thumb Code     8  __main.o(!!!main)
    __scatterload                            0x080201d1   Thumb Code     0  __scatter.o(!!!scatter)
    __scatterload_rt2                        0x080201d1   Thumb Code    44  __scatter.o(!!!scatter)
    __scatterload_rt2_thumb_only             0x080201d1   Thumb Code     0  __scatter.o(!!!scatter)
    __scatterload_null                       0x080201df   Thumb Code     0  __scatter.o(!!!scatter)
    __decompress                             0x08020205   Thumb Code    90  __dczerorl2.o(!!dczerorl2)
    __decompress1                            0x08020205   Thumb Code     0  __dczerorl2.o(!!dczerorl2)
    __scatterload_zeroinit                   0x08020261   Thumb Code    28  __scatter_zi.o(!!handler_zi)
    __rt_lib_init                            0x0802027d   Thumb Code     0  libinit.o(.ARM.Collect$$libinit$$00000000)
    __rt_lib_init_fp_1                       0x0802027f   Thumb Code     0  libinit2.o(.ARM.Collect$$libinit$$00000001)
    __rt_lib_init_heap_2                     0x08020283   Thumb Code     0  libinit2.o(.ARM.Collect$$libinit$$00000005)
    __rt_lib_init_preinit_1                  0x08020283   Thumb Code     0  libinit2.o(.ARM.Collect$$libinit$$00000004)
    __rt_lib_init_alloca_1                   0x0802028b   Thumb Code     0  libinit2.o(.ARM.Collect$$libinit$$0000002E)
    __rt_lib_init_argv_1                     0x0802028b   Thumb Code     0  libinit2.o(.ARM.Collect$$libinit$$0000002C)
    __rt_lib_init_atexit_1                   0x0802028b   Thumb Code     0  libinit2.o(.ARM.Collect$$libinit$$0000001B)
    __rt_lib_init_clock_1                    0x0802028b   Thumb Code     0  libinit2.o(.ARM.Collect$$libinit$$00000021)
    __rt_lib_init_cpp_1                      0x0802028b   Thumb Code     0  libinit2.o(.ARM.Collect$$libinit$$00000032)
    __rt_lib_init_exceptions_1               0x0802028b   Thumb Code     0  libinit2.o(.ARM.Collect$$libinit$$00000030)
    __rt_lib_init_fp_trap_1                  0x0802028b   Thumb Code     0  libinit2.o(.ARM.Collect$$libinit$$0000001F)
    __rt_lib_init_getenv_1                   0x0802028b   Thumb Code     0  libinit2.o(.ARM.Collect$$libinit$$00000023)
    __rt_lib_init_heap_1                     0x0802028b   Thumb Code     0  libinit2.o(.ARM.Collect$$libinit$$0000000A)
    __rt_lib_init_lc_collate_1               0x0802028b   Thumb Code     0  libinit2.o(.ARM.Collect$$libinit$$00000011)
    __rt_lib_init_lc_ctype_1                 0x0802028b   Thumb Code     0  libinit2.o(.ARM.Collect$$libinit$$00000013)
    __rt_lib_init_lc_monetary_1              0x0802028b   Thumb Code     0  libinit2.o(.ARM.Collect$$libinit$$00000015)
    __rt_lib_init_lc_numeric_1               0x0802028b   Thumb Code     0  libinit2.o(.ARM.Collect$$libinit$$00000017)
    __rt_lib_init_lc_time_1                  0x0802028b   Thumb Code     0  libinit2.o(.ARM.Collect$$libinit$$00000019)
    __rt_lib_init_rand_1                     0x0802028b   Thumb Code     0  libinit2.o(.ARM.Collect$$libinit$$0000000E)
    __rt_lib_init_return                     0x0802028b   Thumb Code     0  libinit2.o(.ARM.Collect$$libinit$$00000033)
    __rt_lib_init_signal_1                   0x0802028b   Thumb Code     0  libinit2.o(.ARM.Collect$$libinit$$0000001D)
    __rt_lib_init_stdio_1                    0x0802028b   Thumb Code     0  libinit2.o(.ARM.Collect$$libinit$$00000025)
    __rt_lib_init_user_alloc_1               0x0802028b   Thumb Code     0  libinit2.o(.ARM.Collect$$libinit$$0000000C)
    __rt_lib_shutdown                        0x0802028d   Thumb Code     0  libshutdown.o(.ARM.Collect$$libshutdown$$00000000)
    __rt_lib_shutdown_cpp_1                  0x0802028f   Thumb Code     0  libshutdown2.o(.ARM.Collect$$libshutdown$$00000004)
    __rt_lib_shutdown_fini_1                 0x0802028f   Thumb Code     0  libshutdown2.o(.ARM.Collect$$libshutdown$$00000002)
    __rt_lib_shutdown_fp_trap_1              0x0802028f   Thumb Code     0  libshutdown2.o(.ARM.Collect$$libshutdown$$00000009)
    __rt_lib_shutdown_heap_1                 0x0802028f   Thumb Code     0  libshutdown2.o(.ARM.Collect$$libshutdown$$00000011)
    __rt_lib_shutdown_return                 0x0802028f   Thumb Code     0  libshutdown2.o(.ARM.Collect$$libshutdown$$00000012)
    __rt_lib_shutdown_signal_1               0x0802028f   Thumb Code     0  libshutdown2.o(.ARM.Collect$$libshutdown$$0000000C)
    __rt_lib_shutdown_stdio_1                0x0802028f   Thumb Code     0  libshutdown2.o(.ARM.Collect$$libshutdown$$00000006)
    __rt_lib_shutdown_user_alloc_1           0x0802028f   Thumb Code     0  libshutdown2.o(.ARM.Collect$$libshutdown$$0000000E)
    __rt_entry                               0x08020291   Thumb Code     0  __rtentry.o(.ARM.Collect$$rtentry$$00000000)
    __rt_entry_presh_1                       0x08020291   Thumb Code     0  __rtentry2.o(.ARM.Collect$$rtentry$$00000002)
    __rt_entry_sh                            0x08020291   Thumb Code     0  __rtentry4.o(.ARM.Collect$$rtentry$$00000004)
    __rt_entry_li                            0x08020297   Thumb Code     0  __rtentry2.o(.ARM.Collect$$rtentry$$0000000A)
    __rt_entry_postsh_1                      0x08020297   Thumb Code     0  __rtentry2.o(.ARM.Collect$$rtentry$$00000009)
    __rt_entry_main                          0x0802029b   Thumb Code     0  __rtentry2.o(.ARM.Collect$$rtentry$$0000000D)
    __rt_entry_postli_1                      0x0802029b   Thumb Code     0  __rtentry2.o(.ARM.Collect$$rtentry$$0000000C)
    __rt_exit                                0x080202a3   Thumb Code     0  rtexit.o(.ARM.Collect$$rtexit$$00000000)
    __rt_exit_ls                             0x080202a5   Thumb Code     0  rtexit2.o(.ARM.Collect$$rtexit$$00000003)
    __rt_exit_prels_1                        0x080202a5   Thumb Code     0  rtexit2.o(.ARM.Collect$$rtexit$$00000002)
    __rt_exit_exit                           0x080202a9   Thumb Code     0  rtexit2.o(.ARM.Collect$$rtexit$$00000004)
    Reset_Handler                            0x080202b1   Thumb Code     8  startup_stm32f429nihx.o(.text)
    _maybe_terminate_alloc                   0x080202b1   Thumb Code     0  maybetermalloc1.o(.emb_text)
    NMI_Handler                              0x080202b9   Thumb Code     2  startup_stm32f429nihx.o(.text)
    HardFault_Handler                        0x080202bb   Thumb Code     2  startup_stm32f429nihx.o(.text)
    MemManage_Handler                        0x080202bd   Thumb Code     2  startup_stm32f429nihx.o(.text)
    BusFault_Handler                         0x080202bf   Thumb Code     2  startup_stm32f429nihx.o(.text)
    UsageFault_Handler                       0x080202c1   Thumb Code     2  startup_stm32f429nihx.o(.text)
    SVC_Handler                              0x080202c3   Thumb Code     2  startup_stm32f429nihx.o(.text)
    DebugMon_Handler                         0x080202c5   Thumb Code     2  startup_stm32f429nihx.o(.text)
    PendSV_Handler                           0x080202c7   Thumb Code     2  startup_stm32f429nihx.o(.text)
    ADC_IRQHandler                           0x080202cb   Thumb Code     0  startup_stm32f429nihx.o(.text)
    CAN1_RX0_IRQHandler                      0x080202cb   Thumb Code     0  startup_stm32f429nihx.o(.text)
    CAN1_RX1_IRQHandler                      0x080202cb   Thumb Code     0  startup_stm32f429nihx.o(.text)
    CAN1_SCE_IRQHandler                      0x080202cb   Thumb Code     0  startup_stm32f429nihx.o(.text)
    CAN1_TX_IRQHandler                       0x080202cb   Thumb Code     0  startup_stm32f429nihx.o(.text)
    CAN2_RX0_IRQHandler                      0x080202cb   Thumb Code     0  startup_stm32f429nihx.o(.text)
    CAN2_RX1_IRQHandler                      0x080202cb   Thumb Code     0  startup_stm32f429nihx.o(.text)
    CAN2_SCE_IRQHandler                      0x080202cb   Thumb Code     0  startup_stm32f429nihx.o(.text)
    CAN2_TX_IRQHandler                       0x080202cb   Thumb Code     0  startup_stm32f429nihx.o(.text)
    DCMI_IRQHandler                          0x080202cb   Thumb Code     0  startup_stm32f429nihx.o(.text)
    DMA1_Stream0_IRQHandler                  0x080202cb   Thumb Code     0  startup_stm32f429nihx.o(.text)
    DMA1_Stream1_IRQHandler                  0x080202cb   Thumb Code     0  startup_stm32f429nihx.o(.text)
    DMA1_Stream2_IRQHandler                  0x080202cb   Thumb Code     0  startup_stm32f429nihx.o(.text)
    DMA1_Stream3_IRQHandler                  0x080202cb   Thumb Code     0  startup_stm32f429nihx.o(.text)
    DMA1_Stream4_IRQHandler                  0x080202cb   Thumb Code     0  startup_stm32f429nihx.o(.text)
    DMA1_Stream5_IRQHandler                  0x080202cb   Thumb Code     0  startup_stm32f429nihx.o(.text)
    DMA1_Stream6_IRQHandler                  0x080202cb   Thumb Code     0  startup_stm32f429nihx.o(.text)
    DMA1_Stream7_IRQHandler                  0x080202cb   Thumb Code     0  startup_stm32f429nihx.o(.text)
    DMA2_Stream0_IRQHandler                  0x080202cb   Thumb Code     0  startup_stm32f429nihx.o(.text)
    DMA2_Stream1_IRQHandler                  0x080202cb   Thumb Code     0  startup_stm32f429nihx.o(.text)
    DMA2_Stream2_IRQHandler                  0x080202cb   Thumb Code     0  startup_stm32f429nihx.o(.text)
    DMA2_Stream4_IRQHandler                  0x080202cb   Thumb Code     0  startup_stm32f429nihx.o(.text)
    DMA2_Stream5_IRQHandler                  0x080202cb   Thumb Code     0  startup_stm32f429nihx.o(.text)
    DMA2_Stream7_IRQHandler                  0x080202cb   Thumb Code     0  startup_stm32f429nihx.o(.text)
    ETH_IRQHandler                           0x080202cb   Thumb Code     0  startup_stm32f429nihx.o(.text)
    ETH_WKUP_IRQHandler                      0x080202cb   Thumb Code     0  startup_stm32f429nihx.o(.text)
    EXTI0_IRQHandler                         0x080202cb   Thumb Code     0  startup_stm32f429nihx.o(.text)
    EXTI15_10_IRQHandler                     0x080202cb   Thumb Code     0  startup_stm32f429nihx.o(.text)
    EXTI1_IRQHandler                         0x080202cb   Thumb Code     0  startup_stm32f429nihx.o(.text)
    EXTI2_IRQHandler                         0x080202cb   Thumb Code     0  startup_stm32f429nihx.o(.text)
    EXTI3_IRQHandler                         0x080202cb   Thumb Code     0  startup_stm32f429nihx.o(.text)
    EXTI4_IRQHandler                         0x080202cb   Thumb Code     0  startup_stm32f429nihx.o(.text)
    EXTI9_5_IRQHandler                       0x080202cb   Thumb Code     0  startup_stm32f429nihx.o(.text)
    FLASH_IRQHandler                         0x080202cb   Thumb Code     0  startup_stm32f429nihx.o(.text)
    FMC_IRQHandler                           0x080202cb   Thumb Code     0  startup_stm32f429nihx.o(.text)
    FPU_IRQHandler                           0x080202cb   Thumb Code     0  startup_stm32f429nihx.o(.text)
    HASH_RNG_IRQHandler                      0x080202cb   Thumb Code     0  startup_stm32f429nihx.o(.text)
    I2C1_ER_IRQHandler                       0x080202cb   Thumb Code     0  startup_stm32f429nihx.o(.text)
    I2C1_EV_IRQHandler                       0x080202cb   Thumb Code     0  startup_stm32f429nihx.o(.text)
    I2C2_ER_IRQHandler                       0x080202cb   Thumb Code     0  startup_stm32f429nihx.o(.text)
    I2C2_EV_IRQHandler                       0x080202cb   Thumb Code     0  startup_stm32f429nihx.o(.text)
    I2C3_ER_IRQHandler                       0x080202cb   Thumb Code     0  startup_stm32f429nihx.o(.text)
    I2C3_EV_IRQHandler                       0x080202cb   Thumb Code     0  startup_stm32f429nihx.o(.text)
    OTG_FS_IRQHandler                        0x080202cb   Thumb Code     0  startup_stm32f429nihx.o(.text)
    OTG_FS_WKUP_IRQHandler                   0x080202cb   Thumb Code     0  startup_stm32f429nihx.o(.text)
    OTG_HS_EP1_IN_IRQHandler                 0x080202cb   Thumb Code     0  startup_stm32f429nihx.o(.text)
    OTG_HS_EP1_OUT_IRQHandler                0x080202cb   Thumb Code     0  startup_stm32f429nihx.o(.text)
    OTG_HS_WKUP_IRQHandler                   0x080202cb   Thumb Code     0  startup_stm32f429nihx.o(.text)
    PVD_IRQHandler                           0x080202cb   Thumb Code     0  startup_stm32f429nihx.o(.text)
    RCC_IRQHandler                           0x080202cb   Thumb Code     0  startup_stm32f429nihx.o(.text)
    RTC_Alarm_IRQHandler                     0x080202cb   Thumb Code     0  startup_stm32f429nihx.o(.text)
    RTC_WKUP_IRQHandler                      0x080202cb   Thumb Code     0  startup_stm32f429nihx.o(.text)
    SPI1_IRQHandler                          0x080202cb   Thumb Code     0  startup_stm32f429nihx.o(.text)
    SPI2_IRQHandler                          0x080202cb   Thumb Code     0  startup_stm32f429nihx.o(.text)
    SPI3_IRQHandler                          0x080202cb   Thumb Code     0  startup_stm32f429nihx.o(.text)
    TAMP_STAMP_IRQHandler                    0x080202cb   Thumb Code     0  startup_stm32f429nihx.o(.text)
    TIM1_BRK_TIM9_IRQHandler                 0x080202cb   Thumb Code     0  startup_stm32f429nihx.o(.text)
    TIM1_CC_IRQHandler                       0x080202cb   Thumb Code     0  startup_stm32f429nihx.o(.text)
    TIM1_TRG_COM_TIM11_IRQHandler            0x080202cb   Thumb Code     0  startup_stm32f429nihx.o(.text)
    TIM1_UP_TIM10_IRQHandler                 0x080202cb   Thumb Code     0  startup_stm32f429nihx.o(.text)
    TIM2_IRQHandler                          0x080202cb   Thumb Code     0  startup_stm32f429nihx.o(.text)
    TIM3_IRQHandler                          0x080202cb   Thumb Code     0  startup_stm32f429nihx.o(.text)
    TIM4_IRQHandler                          0x080202cb   Thumb Code     0  startup_stm32f429nihx.o(.text)
    TIM5_IRQHandler                          0x080202cb   Thumb Code     0  startup_stm32f429nihx.o(.text)
    TIM6_DAC_IRQHandler                      0x080202cb   Thumb Code     0  startup_stm32f429nihx.o(.text)
    TIM7_IRQHandler                          0x080202cb   Thumb Code     0  startup_stm32f429nihx.o(.text)
    TIM8_BRK_TIM12_IRQHandler                0x080202cb   Thumb Code     0  startup_stm32f429nihx.o(.text)
    TIM8_CC_IRQHandler                       0x080202cb   Thumb Code     0  startup_stm32f429nihx.o(.text)
    TIM8_TRG_COM_TIM14_IRQHandler            0x080202cb   Thumb Code     0  startup_stm32f429nihx.o(.text)
    TIM8_UP_TIM13_IRQHandler                 0x080202cb   Thumb Code     0  startup_stm32f429nihx.o(.text)
    UART4_IRQHandler                         0x080202cb   Thumb Code     0  startup_stm32f429nihx.o(.text)
    UART5_IRQHandler                         0x080202cb   Thumb Code     0  startup_stm32f429nihx.o(.text)
    USART1_IRQHandler                        0x080202cb   Thumb Code     0  startup_stm32f429nihx.o(.text)
    USART2_IRQHandler                        0x080202cb   Thumb Code     0  startup_stm32f429nihx.o(.text)
    USART3_IRQHandler                        0x080202cb   Thumb Code     0  startup_stm32f429nihx.o(.text)
    USART6_IRQHandler                        0x080202cb   Thumb Code     0  startup_stm32f429nihx.o(.text)
    WWDG_IRQHandler                          0x080202cb   Thumb Code     0  startup_stm32f429nihx.o(.text)
    __user_initial_stackheap                 0x080202cd   Thumb Code     0  startup_stm32f429nihx.o(.text)
    B5_AES256_GETUINT32                      0x080202f1   Thumb Code    26  aes256.o(.text)
    B5_AES256_PUTUINT32                      0x0802030b   Thumb Code    16  aes256.o(.text)
    B5_rijndaelDecrypt                       0x080213b5   Thumb Code  3152  aes256.o(.text)
    B5_Aes256_Init                           0x08022005   Thumb Code   250  aes256.o(.text)
    B5_Aes256_SetIV                          0x080220ff   Thumb Code    92  aes256.o(.text)
    B5_Aes256_Update                         0x0802215b   Thumb Code   650  aes256.o(.text)
    B5_Aes256_Finit                          0x080223e5   Thumb Code     6  aes256.o(.text)
    B5_CmacAes256_Sign                       0x080223eb   Thumb Code   498  aes256.o(.text)
    B5_CmacAes256_Init                       0x080225dd   Thumb Code   294  aes256.o(.text)
    B5_CmacAes256_Update                     0x08022703   Thumb Code   250  aes256.o(.text)
    B5_CmacAes256_Finit                      0x080227fd   Thumb Code   182  aes256.o(.text)
    B5_CmacAes256_Reset                      0x080228b3   Thumb Code    32  aes256.o(.text)
    PBKDF2HmacSha256                         0x0802298d   Thumb Code   100  pbkdf2.o(.text)
    se3_req_len_data                         0x080229f1   Thumb Code    60  se3_common.o(.text)
    se3_req_len_data_and_headers             0x08022a2d   Thumb Code    62  se3_common.o(.text)
    se3_resp_len_data                        0x08022a6b   Thumb Code    60  se3_common.o(.text)
    se3_resp_len_data_and_headers            0x08022aa7   Thumb Code    62  se3_common.o(.text)
    se3_nblocks                              0x08022ae5   Thumb Code    36  se3_common.o(.text)
    B5_SHA256_GETUINT32                      0x08022b09   Thumb Code    32  sha256.o(.text)
    B5_SHA256_PUTUINT32                      0x08022b29   Thumb Code    28  sha256.o(.text)
    B5_SHA256_P                              0x08022b45   Thumb Code   150  sha256.o(.text)
    B5_Sha256_Init                           0x08024d57   Thumb Code    64  sha256.o(.text)
    B5_Sha256_Update                         0x08024d97   Thumb Code   144  sha256.o(.text)
    B5_Sha256_Finit                          0x08024e27   Thumb Code   206  sha256.o(.text)
    B5_HmacSha256_Init                       0x08024ef5   Thumb Code   204  sha256.o(.text)
    B5_HmacSha256_Update                     0x08024fc1   Thumb Code    48  sha256.o(.text)
    B5_HmacSha256_Finit                      0x08024ff1   Thumb Code    74  sha256.o(.text)
    se3_algo_Aes_init                        0x0802503b   Thumb Code   224  se3_algo_aes.o(.text)
    se3_algo_Aes_update                      0x0802511b   Thumb Code   238  se3_algo_aes.o(.text)
    se3_algo_AesHmacSha256s_init             0x08025209   Thumb Code   292  se3_algo_aeshmacsha256s.o(.text)
    se3_algo_AesHmacSha256s_update           0x0802532d   Thumb Code   670  se3_algo_aeshmacsha256s.o(.text)
    se3_algo_HmacSha256_init                 0x080255cb   Thumb Code    50  se3_algo_hmacsha256.o(.text)
    se3_algo_HmacSha256_update               0x080255fd   Thumb Code    92  se3_algo_hmacsha256.o(.text)
    se3_algo_Sha256_init                     0x08025659   Thumb Code    32  se3_algo_sha256.o(.text)
    se3_algo_Sha256_update                   0x08025679   Thumb Code    92  se3_algo_sha256.o(.text)
    se3_communication_core_init              0x080256d5   Thumb Code    92  se3_communication_core.o(.text)
    se3_proto_request_reset                  0x08025811   Thumb Code    14  se3_communication_core.o(.text)
    se3_proto_recv                           0x0802594f   Thumb Code   276  se3_communication_core.o(.text)
    se3_proto_send                           0x08025b8f   Thumb Code   136  se3_communication_core.o(.text)
    sekey_utilities                          0x08025c21   Thumb Code   188  se3_dispatcher_core.o(.text)
    error                                    0x08025cdd   Thumb Code    10  se3_dispatcher_core.o(.text)
    config                                   0x08025ce7   Thumb Code   208  se3_dispatcher_core.o(.text)
    challenge                                0x08025db7   Thumb Code   216  se3_dispatcher_core.o(.text)
    login                                    0x08025e8f   Thumb Code   140  se3_dispatcher_core.o(.text)
    logout                                   0x08025f67   Thumb Code    40  se3_dispatcher_core.o(.text)
    key_len_valid                            0x08025f8f   Thumb Code    42  se3_dispatcher_core.o(.text)
    key_edit                                 0x08025fb9   Thumb Code   416  se3_dispatcher_core.o(.text)
    key_find                                 0x08026159   Thumb Code    94  se3_dispatcher_core.o(.text)
    dispatcher_call                          0x080261b7   Thumb Code   612  se3_dispatcher_core.o(.text)
    se3_dispatcher_init                      0x0802641b   Thumb Code   110  se3_dispatcher_core.o(.text)
    set_req_hdr                              0x08026489   Thumb Code    20  se3_dispatcher_core.o(.text)
    device_init                              0x080264a1   Thumb Code    16  se3_core.o(.text)
    bootmode_reset                           0x0802658d   Thumb Code    34  se3_core.o(.text)
    factory_init                             0x080265af   Thumb Code    98  se3_core.o(.text)
    echo                                     0x08026611   Thumb Code    30  se3_core.o(.text)
    se3_cmd_execute                          0x0802662f   Thumb Code   228  se3_core.o(.text)
    device_loop                              0x08026713   Thumb Code    40  se3_core.o(.text)
    se3_flash_it_next                        0x08026851   Thumb Code   128  se3_flash.o(.text)
    se3_flash_it_init                        0x080268d1   Thumb Code     6  se3_flash.o(.text)
    se3_flash_info_setup                     0x08026a15   Thumb Code    38  se3_flash.o(.text)
    se3_flash_canfit                         0x08026a3b   Thumb Code    24  se3_flash.o(.text)
    se3_flash_init                           0x08026a53   Thumb Code   232  se3_flash.o(.text)
    se3_flash_it_write                       0x08026b3b   Thumb Code    70  se3_flash.o(.text)
    se3_flash_unused                         0x08026b81   Thumb Code    10  se3_flash.o(.text)
    se3_flash_it_new                         0x08026b8b   Thumb Code   244  se3_flash.o(.text)
    se3_flash_pos_delete                     0x08026c7f   Thumb Code    84  se3_flash.o(.text)
    se3_flash_it_delete                      0x08026cd3   Thumb Code    58  se3_flash.o(.text)
    se3_flash_bootmode_reset                 0x08026d0d   Thumb Code    16  se3_flash.o(.text)
    se3_key_find                             0x08026d21   Thumb Code    52  se3_keys.o(.text)
    se3_key_write                            0x08026d55   Thumb Code    72  se3_keys.o(.text)
    se3_key_new                              0x08026d9d   Thumb Code    50  se3_keys.o(.text)
    se3_key_read                             0x08026dcf   Thumb Code    46  se3_keys.o(.text)
    se3_key_equal                            0x08026dfd   Thumb Code    84  se3_keys.o(.text)
    se3_key_fingerprint                      0x08026e51   Thumb Code    32  se3_keys.o(.text)
    se3_mem_reset                            0x08026e71   Thumb Code    74  se3_memory.o(.text)
    se3_mem_init                             0x08026ebb   Thumb Code    42  se3_memory.o(.text)
    se3_mem_alloc                            0x08027037   Thumb Code   380  se3_memory.o(.text)
    se3_mem_ptr                              0x080271b3   Thumb Code    42  se3_memory.o(.text)
    se3_mem_free                             0x080271dd   Thumb Code    78  se3_memory.o(.text)
    se3_security_core_init                   0x0802722d   Thumb Code    22  se3_security_core.o(.text)
    record_set                               0x08027279   Thumb Code   132  se3_security_core.o(.text)
    record_get                               0x080272fd   Thumb Code    52  se3_security_core.o(.text)
    crypto_init                              0x08027331   Thumb Code   308  se3_security_core.o(.text)
    crypto_update                            0x08027465   Thumb Code   330  se3_security_core.o(.text)
    crypto_list                              0x080275af   Thumb Code   232  se3_security_core.o(.text)
    se3_payload_cryptoinit                   0x08027697   Thumb Code    82  se3_security_core.o(.text)
    se3_payload_encrypt                      0x080276e9   Thumb Code   174  se3_security_core.o(.text)
    se3_payload_decrypt                      0x08027797   Thumb Code   174  se3_security_core.o(.text)
    sekey_get_auth                           0x08027845   Thumb Code     6  se3_sekey.o(.text)
    sekey_get_implementation_info            0x0802784b   Thumb Code    24  se3_sekey.o(.text)
    store_user_info                          0x08027863   Thumb Code   318  se3_sekey.o(.text)
    load_user_info                           0x080279a1   Thumb Code   212  se3_sekey.o(.text)
    load_encrypted_key_data                  0x08027a75   Thumb Code   988  se3_sekey.o(.text)
    load_key_ids                             0x08027e51   Thumb Code   180  se3_sekey.o(.text)
    delete_all_keys                          0x08027f05   Thumb Code   240  se3_sekey.o(.text)
    delete_key                               0x08027ff5   Thumb Code   128  se3_sekey.o(.text)
    is_ready                                 0x08028075   Thumb Code   112  se3_sekey.o(.text)
    insert_key                               0x080280e5   Thumb Code   830  se3_sekey.o(.text)
    MX_ADC1_Init                             0x08028425   Thumb Code    68  adc.o(.text)
    HAL_ADC_MspInit                          0x08028469   Thumb Code    70  adc.o(.text)
    HAL_ADC_MspDeInit                        0x080284af   Thumb Code    34  adc.o(.text)
    MX_CRC_Init                              0x080284e1   Thumb Code    16  crc.o(.text)
    HAL_CRC_MspInit                          0x080284f1   Thumb Code    44  crc.o(.text)
    HAL_CRC_MspDeInit                        0x0802851d   Thumb Code    22  crc.o(.text)
    MX_DMA_Init                              0x08028541   Thumb Code    68  dma.o(.text)
    MX_FMC_Init                              0x08028589   Thumb Code   188  fmc.o(.text)
    HAL_NOR_MspInit                          0x080286f3   Thumb Code    10  fmc.o(.text)
    HAL_NOR_MspDeInit                        0x08028743   Thumb Code    10  fmc.o(.text)
    MX_GPIO_Init                             0x08028775   Thumb Code   452  gpio.o(.text)
    MX_I2C2_Init                             0x0802894d   Thumb Code    42  i2c.o(.text)
    HAL_I2C_MspInit                          0x08028977   Thumb Code    78  i2c.o(.text)
    HAL_I2C_MspDeInit                        0x080289c5   Thumb Code    34  i2c.o(.text)
    SystemClock_Config                       0x080289fd   Thumb Code   190  main.o(.text)
    main                                     0x08028abb   Thumb Code    74  main.o(.text)
    MX_RNG_Init                              0x08028b0d   Thumb Code    16  rng.o(.text)
    HAL_RNG_MspInit                          0x08028b1d   Thumb Code    44  rng.o(.text)
    HAL_RNG_MspDeInit                        0x08028b49   Thumb Code    22  rng.o(.text)
    MX_SDIO_SD_Init                          0x08028b6d   Thumb Code    44  sdio.o(.text)
    HAL_SD_MspInit                           0x08028b99   Thumb Code   284  sdio.o(.text)
    HAL_SD_MspDeInit                         0x08028cb5   Thumb Code    62  sdio.o(.text)
    se3_rand32                               0x08028d19   Thumb Code    42  se3_rand.o(.text)
    se3_rand                                 0x08028d43   Thumb Code    88  se3_rand.o(.text)
    secube_sdio_write                        0x08028da1   Thumb Code    56  se3_sdio.o(.text)
    secube_sdio_read                         0x08028dd9   Thumb Code    56  se3_sdio.o(.text)
    secube_sdio_capacity                     0x08028e11   Thumb Code    58  se3_sdio.o(.text)
    secube_sdio_isready                      0x08028e4b   Thumb Code    18  se3_sdio.o(.text)
    MX_SPI5_Init                             0x08028e69   Thumb Code    46  spi.o(.text)
    HAL_SPI_MspInit                          0x08028e97   Thumb Code    98  spi.o(.text)
    HAL_SPI_MspDeInit                        0x08028ef9   Thumb Code    36  spi.o(.text)
    HAL_MspInit                              0x08028f2d   Thumb Code    20  stm32f4xx_hal_msp.o(.text)
    SysTick_Handler                          0x08028f41   Thumb Code    12  stm32f4xx_it.o(.text)
    SDIO_IRQHandler                          0x08028f4d   Thumb Code    10  stm32f4xx_it.o(.text)
    DMA2_Stream3_IRQHandler                  0x08028f57   Thumb Code    10  stm32f4xx_it.o(.text)
    DMA2_Stream6_IRQHandler                  0x08028f61   Thumb Code    10  stm32f4xx_it.o(.text)
    OTG_HS_IRQHandler                        0x08028f6b   Thumb Code    10  stm32f4xx_it.o(.text)
    SystemInit                               0x08028f85   Thumb Code    82  system_stm32f4xx.o(.text)
    SystemCoreClockUpdate                    0x08028fd7   Thumb Code   174  system_stm32f4xx.o(.text)
    HAL_TIM_MspPostInit                      0x080290a1   Thumb Code    44  tim.o(.text)
    MX_TIM4_Init                             0x080290cd   Thumb Code    74  tim.o(.text)
    HAL_TIM_PWM_MspInit                      0x08029117   Thumb Code    44  tim.o(.text)
    HAL_TIM_PWM_MspDeInit                    0x08029143   Thumb Code    22  tim.o(.text)
    MX_USART1_UART_Init                      0x08029169   Thumb Code    42  usart.o(.text)
    MX_USART6_SMARTCARD_Init                 0x08029193   Thumb Code    62  usart.o(.text)
    HAL_UART_MspInit                         0x080291d1   Thumb Code   138  usart.o(.text)
    HAL_SMARTCARD_MspInit                    0x0802925b   Thumb Code   106  usart.o(.text)
    HAL_UART_MspDeInit                       0x080292c5   Thumb Code    44  usart.o(.text)
    HAL_SMARTCARD_MspDeInit                  0x080292f1   Thumb Code    42  usart.o(.text)
    MX_USB_DEVICE_Init                       0x08029341   Thumb Code    36  usb_device.o(.text)
    HAL_PCD_MspInit                          0x08029375   Thumb Code   212  usbd_conf.o(.text)
    HAL_PCD_MspDeInit                        0x08029449   Thumb Code    78  usbd_conf.o(.text)
    HAL_PCD_SetupStageCallback               0x08029497   Thumb Code    18  usbd_conf.o(.text)
    HAL_PCD_DataOutStageCallback             0x080294a9   Thumb Code    32  usbd_conf.o(.text)
    HAL_PCD_DataInStageCallback              0x080294c9   Thumb Code    32  usbd_conf.o(.text)
    HAL_PCD_SOFCallback                      0x080294e9   Thumb Code    14  usbd_conf.o(.text)
    HAL_PCD_ResetCallback                    0x080294f7   Thumb Code    50  usbd_conf.o(.text)
    HAL_PCD_SuspendCallback                  0x08029529   Thumb Code    46  usbd_conf.o(.text)
    HAL_PCD_ResumeCallback                   0x08029557   Thumb Code    14  usbd_conf.o(.text)
    HAL_PCD_ISOOUTIncompleteCallback         0x08029565   Thumb Code    18  usbd_conf.o(.text)
    HAL_PCD_ISOINIncompleteCallback          0x08029577   Thumb Code    18  usbd_conf.o(.text)
    HAL_PCD_ConnectCallback                  0x08029589   Thumb Code    14  usbd_conf.o(.text)
    HAL_PCD_DisconnectCallback               0x08029597   Thumb Code    14  usbd_conf.o(.text)
    USBD_LL_Init                             0x080295a5   Thumb Code   106  usbd_conf.o(.text)
    USBD_LL_DeInit                           0x0802960f   Thumb Code    16  usbd_conf.o(.text)
    USBD_LL_Start                            0x0802961f   Thumb Code    16  usbd_conf.o(.text)
    USBD_LL_Stop                             0x0802962f   Thumb Code    16  usbd_conf.o(.text)
    USBD_LL_OpenEP                           0x0802963f   Thumb Code    32  usbd_conf.o(.text)
    USBD_LL_CloseEP                          0x0802965f   Thumb Code    20  usbd_conf.o(.text)
    USBD_LL_FlushEP                          0x08029673   Thumb Code    20  usbd_conf.o(.text)
    USBD_LL_StallEP                          0x08029687   Thumb Code    20  usbd_conf.o(.text)
    USBD_LL_ClearStallEP                     0x0802969b   Thumb Code    20  usbd_conf.o(.text)
    USBD_LL_IsStallEP                        0x080296af   Thumb Code    56  usbd_conf.o(.text)
    USBD_LL_SetUSBAddress                    0x080296e7   Thumb Code    20  usbd_conf.o(.text)
    USBD_LL_Transmit                         0x080296fb   Thumb Code    32  usbd_conf.o(.text)
    USBD_LL_PrepareReceive                   0x0802971b   Thumb Code    32  usbd_conf.o(.text)
    USBD_LL_GetRxDataSize                    0x0802973b   Thumb Code    18  usbd_conf.o(.text)
    USBD_LL_Delay                            0x0802974d   Thumb Code    44  usbd_conf.o(.text)
    USBD_HS_DeviceDescriptor                 0x08029779   Thumb Code    10  usbd_desc.o(.text)
    USBD_HS_LangIDStrDescriptor              0x08029783   Thumb Code    10  usbd_desc.o(.text)
    USBD_HS_ProductStrDescriptor             0x0802978d   Thumb Code    34  usbd_desc.o(.text)
    USBD_HS_ManufacturerStrDescriptor        0x080297af   Thumb Code    20  usbd_desc.o(.text)
    USBD_HS_SerialStrDescriptor              0x080297c3   Thumb Code    34  usbd_desc.o(.text)
    USBD_HS_ConfigStrDescriptor              0x080297e5   Thumb Code    34  usbd_desc.o(.text)
    USBD_HS_InterfaceStrDescriptor           0x08029807   Thumb Code    34  usbd_desc.o(.text)
    HAL_InitTick                             0x080298fb   Thumb Code    36  stm32f4xx_hal.o(.text)
    HAL_Init                                 0x0802991f   Thumb Code    54  stm32f4xx_hal.o(.text)
    HAL_MspDeInit                            0x08029955   Thumb Code     2  stm32f4xx_hal.o(.text)
    HAL_DeInit                               0x08029957   Thumb Code    64  stm32f4xx_hal.o(.text)
    HAL_IncTick                              0x08029997   Thumb Code    12  stm32f4xx_hal.o(.text)
    HAL_GetTick                              0x080299a3   Thumb Code     6  stm32f4xx_hal.o(.text)
    HAL_Delay                                0x080299a9   Thumb Code    26  stm32f4xx_hal.o(.text)
    HAL_SuspendTick                          0x080299c3   Thumb Code    18  stm32f4xx_hal.o(.text)
    HAL_ResumeTick                           0x080299d5   Thumb Code    18  stm32f4xx_hal.o(.text)
    HAL_GetHalVersion                        0x080299e7   Thumb Code     4  stm32f4xx_hal.o(.text)
    HAL_GetREVID                             0x080299eb   Thumb Code     8  stm32f4xx_hal.o(.text)
    HAL_GetDEVID                             0x080299f3   Thumb Code    10  stm32f4xx_hal.o(.text)
    HAL_DBGMCU_EnableDBGSleepMode            0x080299fd   Thumb Code    14  stm32f4xx_hal.o(.text)
    HAL_DBGMCU_DisableDBGSleepMode           0x08029a0b   Thumb Code    14  stm32f4xx_hal.o(.text)
    HAL_DBGMCU_EnableDBGStopMode             0x08029a19   Thumb Code    14  stm32f4xx_hal.o(.text)
    HAL_DBGMCU_DisableDBGStopMode            0x08029a27   Thumb Code    14  stm32f4xx_hal.o(.text)
    HAL_DBGMCU_EnableDBGStandbyMode          0x08029a35   Thumb Code    14  stm32f4xx_hal.o(.text)
    HAL_DBGMCU_DisableDBGStandbyMode         0x08029a43   Thumb Code    14  stm32f4xx_hal.o(.text)
    HAL_EnableCompensationCell               0x08029a51   Thumb Code    22  stm32f4xx_hal.o(.text)
    HAL_DisableCompensationCell              0x08029a67   Thumb Code    24  stm32f4xx_hal.o(.text)
    HAL_EnableMemorySwappingBank             0x08029a7f   Thumb Code    20  stm32f4xx_hal.o(.text)
    HAL_DisableMemorySwappingBank            0x08029a93   Thumb Code    22  stm32f4xx_hal.o(.text)
    HAL_ADC_Init                             0x08029c2d   Thumb Code   100  stm32f4xx_hal_adc.o(.text)
    HAL_ADC_DeInit                           0x08029c93   Thumb Code    68  stm32f4xx_hal_adc.o(.text)
    HAL_ADC_Start                            0x08029cd7   Thumb Code   236  stm32f4xx_hal_adc.o(.text)
    HAL_ADC_Stop                             0x08029dc3   Thumb Code    72  stm32f4xx_hal_adc.o(.text)
    HAL_ADC_PollForConversion                0x08029e0b   Thumb Code   208  stm32f4xx_hal_adc.o(.text)
    HAL_ADC_PollForEvent                     0x08029edb   Thumb Code   118  stm32f4xx_hal_adc.o(.text)
    HAL_ADC_Start_IT                         0x08029f51   Thumb Code   248  stm32f4xx_hal_adc.o(.text)
    HAL_ADC_Stop_IT                          0x0802a049   Thumb Code    86  stm32f4xx_hal_adc.o(.text)
    HAL_ADC_ErrorCallback                    0x0802a09f   Thumb Code     2  stm32f4xx_hal_adc.o(.text)
    HAL_ADC_LevelOutOfWindowCallback         0x0802a0a1   Thumb Code     2  stm32f4xx_hal_adc.o(.text)
    HAL_ADC_ConvCpltCallback                 0x0802a0a3   Thumb Code     2  stm32f4xx_hal_adc.o(.text)
    HAL_ADC_IRQHandler                       0x0802a0a5   Thumb Code   372  stm32f4xx_hal_adc.o(.text)
    HAL_ADC_ConvHalfCpltCallback             0x0802a233   Thumb Code     2  stm32f4xx_hal_adc.o(.text)
    HAL_ADC_Start_DMA                        0x0802a2b1   Thumb Code   334  stm32f4xx_hal_adc.o(.text)
    HAL_ADC_Stop_DMA                         0x0802a3ff   Thumb Code   108  stm32f4xx_hal_adc.o(.text)
    HAL_ADC_GetValue                         0x0802a46b   Thumb Code     8  stm32f4xx_hal_adc.o(.text)
    HAL_ADC_ConfigChannel                    0x0802a473   Thumb Code   390  stm32f4xx_hal_adc.o(.text)
    HAL_ADC_AnalogWDGConfig                  0x0802a5f9   Thumb Code   132  stm32f4xx_hal_adc.o(.text)
    HAL_ADC_GetState                         0x0802a67d   Thumb Code     6  stm32f4xx_hal_adc.o(.text)
    HAL_ADC_GetError                         0x0802a683   Thumb Code     6  stm32f4xx_hal_adc.o(.text)
    HAL_ADCEx_InjectedStart                  0x0802a6a1   Thumb Code   252  stm32f4xx_hal_adc_ex.o(.text)
    HAL_ADCEx_InjectedStart_IT               0x0802a79d   Thumb Code   264  stm32f4xx_hal_adc_ex.o(.text)
    HAL_ADCEx_InjectedStop                   0x0802a8a5   Thumb Code   104  stm32f4xx_hal_adc_ex.o(.text)
    HAL_ADCEx_InjectedPollForConversion      0x0802a90d   Thumb Code   160  stm32f4xx_hal_adc_ex.o(.text)
    HAL_ADCEx_InjectedStop_IT                0x0802a9ad   Thumb Code   116  stm32f4xx_hal_adc_ex.o(.text)
    HAL_ADCEx_InjectedGetValue               0x0802aa21   Thumb Code    70  stm32f4xx_hal_adc_ex.o(.text)
    HAL_ADCEx_MultiModeStart_DMA             0x0802ab11   Thumb Code   278  stm32f4xx_hal_adc_ex.o(.text)
    HAL_ADCEx_MultiModeStop_DMA              0x0802ac27   Thumb Code   108  stm32f4xx_hal_adc_ex.o(.text)
    HAL_ADCEx_MultiModeGetValue              0x0802ac93   Thumb Code    10  stm32f4xx_hal_adc_ex.o(.text)
    HAL_ADCEx_InjectedConvCpltCallback       0x0802ac9d   Thumb Code     2  stm32f4xx_hal_adc_ex.o(.text)
    HAL_ADCEx_InjectedConfigChannel          0x0802ac9f   Thumb Code   550  stm32f4xx_hal_adc_ex.o(.text)
    HAL_ADCEx_MultiModeConfigChannel         0x0802aec5   Thumb Code   164  stm32f4xx_hal_adc_ex.o(.text)
    HAL_NVIC_SetPriorityGrouping             0x0802af89   Thumb Code    36  stm32f4xx_hal_cortex.o(.text)
    HAL_NVIC_SetPriority                     0x0802afad   Thumb Code   124  stm32f4xx_hal_cortex.o(.text)
    HAL_NVIC_EnableIRQ                       0x0802b029   Thumb Code    26  stm32f4xx_hal_cortex.o(.text)
    HAL_NVIC_DisableIRQ                      0x0802b043   Thumb Code    22  stm32f4xx_hal_cortex.o(.text)
    HAL_NVIC_SystemReset                     0x0802b059   Thumb Code    64  stm32f4xx_hal_cortex.o(.text)
    HAL_SYSTICK_Config                       0x0802b099   Thumb Code    52  stm32f4xx_hal_cortex.o(.text)
    HAL_MPU_ConfigRegion                     0x0802b0cd   Thumb Code    90  stm32f4xx_hal_cortex.o(.text)
    HAL_NVIC_GetPriorityGrouping             0x0802b127   Thumb Code     8  stm32f4xx_hal_cortex.o(.text)
    HAL_NVIC_GetPriority                     0x0802b12f   Thumb Code   138  stm32f4xx_hal_cortex.o(.text)
    HAL_NVIC_SetPendingIRQ                   0x0802b1b9   Thumb Code    24  stm32f4xx_hal_cortex.o(.text)
    HAL_NVIC_GetPendingIRQ                   0x0802b1d1   Thumb Code    38  stm32f4xx_hal_cortex.o(.text)
    HAL_NVIC_ClearPendingIRQ                 0x0802b1f7   Thumb Code    22  stm32f4xx_hal_cortex.o(.text)
    HAL_NVIC_GetActive                       0x0802b20d   Thumb Code    38  stm32f4xx_hal_cortex.o(.text)
    HAL_SYSTICK_CLKSourceConfig              0x0802b233   Thumb Code    40  stm32f4xx_hal_cortex.o(.text)
    HAL_SYSTICK_Callback                     0x0802b25b   Thumb Code     2  stm32f4xx_hal_cortex.o(.text)
    HAL_SYSTICK_IRQHandler                   0x0802b25d   Thumb Code     8  stm32f4xx_hal_cortex.o(.text)
    HAL_CRC_Init                             0x0802b287   Thumb Code    36  stm32f4xx_hal_crc.o(.text)
    HAL_CRC_DeInit                           0x0802b2ad   Thumb Code    34  stm32f4xx_hal_crc.o(.text)
    HAL_CRC_Accumulate                       0x0802b2cf   Thumb Code    66  stm32f4xx_hal_crc.o(.text)
    HAL_CRC_Calculate                        0x0802b311   Thumb Code    78  stm32f4xx_hal_crc.o(.text)
    HAL_CRC_GetState                         0x0802b35f   Thumb Code     6  stm32f4xx_hal_crc.o(.text)
    HAL_DMA_Init                             0x0802b393   Thumb Code   128  stm32f4xx_hal_dma.o(.text)
    HAL_DMA_DeInit                           0x0802b413   Thumb Code   100  stm32f4xx_hal_dma.o(.text)
    HAL_DMA_Start                            0x0802b4a3   Thumb Code    82  stm32f4xx_hal_dma.o(.text)
    HAL_DMA_Start_IT                         0x0802b4f5   Thumb Code   106  stm32f4xx_hal_dma.o(.text)
    HAL_DMA_Abort                            0x0802b55f   Thumb Code    94  stm32f4xx_hal_dma.o(.text)
    HAL_DMA_PollForTransfer                  0x0802b5bd   Thumb Code   412  stm32f4xx_hal_dma.o(.text)
    HAL_DMA_IRQHandler                       0x0802b759   Thumb Code   530  stm32f4xx_hal_dma.o(.text)
    HAL_DMA_GetState                         0x0802b96b   Thumb Code     8  stm32f4xx_hal_dma.o(.text)
    HAL_DMA_GetError                         0x0802b973   Thumb Code     6  stm32f4xx_hal_dma.o(.text)
    FLASH_WaitForLastOperation               0x0802ba29   Thumb Code   102  stm32f4xx_hal_flash.o(.text)
    HAL_FLASH_Program                        0x0802bb2f   Thumb Code   146  stm32f4xx_hal_flash.o(.text)
    HAL_FLASH_Program_IT                     0x0802bbc1   Thumb Code   130  stm32f4xx_hal_flash.o(.text)
    HAL_FLASH_EndOfOperationCallback         0x0802bc43   Thumb Code     2  stm32f4xx_hal_flash.o(.text)
    HAL_FLASH_OperationErrorCallback         0x0802bc45   Thumb Code     2  stm32f4xx_hal_flash.o(.text)
    HAL_FLASH_IRQHandler                     0x0802bc47   Thumb Code   286  stm32f4xx_hal_flash.o(.text)
    HAL_FLASH_Unlock                         0x0802bd65   Thumb Code    32  stm32f4xx_hal_flash.o(.text)
    HAL_FLASH_Lock                           0x0802bd85   Thumb Code    16  stm32f4xx_hal_flash.o(.text)
    HAL_FLASH_OB_Unlock                      0x0802bd95   Thumb Code    34  stm32f4xx_hal_flash.o(.text)
    HAL_FLASH_OB_Lock                        0x0802bdb7   Thumb Code    20  stm32f4xx_hal_flash.o(.text)
    HAL_FLASH_OB_Launch                      0x0802bdcb   Thumb Code    28  stm32f4xx_hal_flash.o(.text)
    HAL_FLASH_GetError                       0x0802bde7   Thumb Code     6  stm32f4xx_hal_flash.o(.text)
    FLASH_FlushCaches                        0x0802be05   Thumb Code   114  stm32f4xx_hal_flash_ex.o(.text)
    FLASH_Erase_Sector                       0x0802be77   Thumb Code   110  stm32f4xx_hal_flash_ex.o(.text)
    HAL_FLASHEx_Erase                        0x0802bf47   Thumb Code   174  stm32f4xx_hal_flash_ex.o(.text)
    HAL_FLASHEx_Erase_IT                     0x0802bff5   Thumb Code   116  stm32f4xx_hal_flash_ex.o(.text)
    HAL_FLASHEx_OBProgram                    0x0802c205   Thumb Code   144  stm32f4xx_hal_flash_ex.o(.text)
    HAL_FLASHEx_OBGetConfig                  0x0802c2d3   Thumb Code    34  stm32f4xx_hal_flash_ex.o(.text)
    HAL_FLASHEx_AdvOBProgram                 0x0802c3e9   Thumb Code    68  stm32f4xx_hal_flash_ex.o(.text)
    HAL_FLASHEx_AdvOBGetConfig               0x0802c42d   Thumb Code    24  stm32f4xx_hal_flash_ex.o(.text)
    HAL_FLASHEx_OB_SelectPCROP               0x0802c445   Thumb Code    26  stm32f4xx_hal_flash_ex.o(.text)
    HAL_FLASHEx_OB_DeSelectPCROP             0x0802c45f   Thumb Code    22  stm32f4xx_hal_flash_ex.o(.text)
    HAL_FLASHEx_OB_GetBank2WRP               0x0802c475   Thumb Code     8  stm32f4xx_hal_flash_ex.o(.text)
    HAL_GPIO_Init                            0x0802c485   Thumb Code   486  stm32f4xx_hal_gpio.o(.text)
    HAL_GPIO_DeInit                          0x0802c66b   Thumb Code   336  stm32f4xx_hal_gpio.o(.text)
    HAL_GPIO_ReadPin                         0x0802c7bb   Thumb Code    16  stm32f4xx_hal_gpio.o(.text)
    HAL_GPIO_WritePin                        0x0802c7cb   Thumb Code    12  stm32f4xx_hal_gpio.o(.text)
    HAL_GPIO_TogglePin                       0x0802c7d7   Thumb Code     8  stm32f4xx_hal_gpio.o(.text)
    HAL_GPIO_LockPin                         0x0802c7df   Thumb Code    46  stm32f4xx_hal_gpio.o(.text)
    HAL_GPIO_EXTI_Callback                   0x0802c80d   Thumb Code     2  stm32f4xx_hal_gpio.o(.text)
    HAL_GPIO_EXTI_IRQHandler                 0x0802c80f   Thumb Code    28  stm32f4xx_hal_gpio.o(.text)
    HAL_I2C_Init                             0x0802c863   Thumb Code   286  stm32f4xx_hal_i2c.o(.text)
    HAL_I2C_DeInit                           0x0802c983   Thumb Code    60  stm32f4xx_hal_i2c.o(.text)
    HAL_I2C_Master_Transmit                  0x0802ccf9   Thumb Code   320  stm32f4xx_hal_i2c.o(.text)
    HAL_I2C_Master_Receive                   0x0802cfd7   Thumb Code   630  stm32f4xx_hal_i2c.o(.text)
    HAL_I2C_Slave_Transmit                   0x0802d24d   Thumb Code   350  stm32f4xx_hal_i2c.o(.text)
    HAL_I2C_Slave_Receive                    0x0802d403   Thumb Code   350  stm32f4xx_hal_i2c.o(.text)
    HAL_I2C_Master_Transmit_IT               0x0802d561   Thumb Code   250  stm32f4xx_hal_i2c.o(.text)
    HAL_I2C_Master_Receive_IT                0x0802d65b   Thumb Code   372  stm32f4xx_hal_i2c.o(.text)
    HAL_I2C_Master_Sequential_Transmit_IT    0x0802d7cf   Thumb Code   272  stm32f4xx_hal_i2c.o(.text)
    HAL_I2C_Master_Sequential_Receive_IT     0x0802d8df   Thumb Code   494  stm32f4xx_hal_i2c.o(.text)
    HAL_I2C_Slave_Transmit_IT                0x0802dacd   Thumb Code   146  stm32f4xx_hal_i2c.o(.text)
    HAL_I2C_Slave_Receive_IT                 0x0802db5f   Thumb Code   146  stm32f4xx_hal_i2c.o(.text)
    HAL_I2C_Slave_Sequential_Transmit_IT     0x0802dbf1   Thumb Code   128  stm32f4xx_hal_i2c.o(.text)
    HAL_I2C_Slave_Sequential_Receive_IT      0x0802dc71   Thumb Code   128  stm32f4xx_hal_i2c.o(.text)
    HAL_I2C_EnableListen_IT                  0x0802dcf1   Thumb Code    48  stm32f4xx_hal_i2c.o(.text)
    HAL_I2C_DisableListen_IT                 0x0802dd21   Thumb Code    70  stm32f4xx_hal_i2c.o(.text)
    HAL_I2C_ErrorCallback                    0x0802dd67   Thumb Code     2  stm32f4xx_hal_i2c.o(.text)
    HAL_I2C_MasterTxCpltCallback             0x0802dd9b   Thumb Code     2  stm32f4xx_hal_i2c.o(.text)
    HAL_I2C_Master_Transmit_DMA              0x0802ddf5   Thumb Code   354  stm32f4xx_hal_i2c.o(.text)
    HAL_I2C_MasterRxCpltCallback             0x0802df57   Thumb Code     2  stm32f4xx_hal_i2c.o(.text)
    HAL_I2C_Master_Receive_DMA               0x0802dfb3   Thumb Code   346  stm32f4xx_hal_i2c.o(.text)
    HAL_I2C_Master_Abort_IT                  0x0802e10d   Thumb Code   118  stm32f4xx_hal_i2c.o(.text)
    HAL_I2C_SlaveTxCpltCallback              0x0802e183   Thumb Code     2  stm32f4xx_hal_i2c.o(.text)
    HAL_I2C_Slave_Transmit_DMA               0x0802e1e7   Thumb Code   318  stm32f4xx_hal_i2c.o(.text)
    HAL_I2C_SlaveRxCpltCallback              0x0802e325   Thumb Code     2  stm32f4xx_hal_i2c.o(.text)
    HAL_I2C_Slave_Receive_DMA                0x0802e3a7   Thumb Code   214  stm32f4xx_hal_i2c.o(.text)
    HAL_I2C_Mem_Write                        0x0802e54d   Thumb Code   304  stm32f4xx_hal_i2c.o(.text)
    HAL_I2C_Mem_Read                         0x0802e7d5   Thumb Code   612  stm32f4xx_hal_i2c.o(.text)
    HAL_I2C_Mem_Write_IT                     0x0802ea39   Thumb Code   244  stm32f4xx_hal_i2c.o(.text)
    HAL_I2C_Mem_Read_IT                      0x0802eb2d   Thumb Code   400  stm32f4xx_hal_i2c.o(.text)
    HAL_I2C_MemTxCpltCallback                0x0802ecbd   Thumb Code     2  stm32f4xx_hal_i2c.o(.text)
    HAL_I2C_Mem_Write_DMA                    0x0802ed17   Thumb Code   314  stm32f4xx_hal_i2c.o(.text)
    HAL_I2C_MemRxCpltCallback                0x0802ee51   Thumb Code     2  stm32f4xx_hal_i2c.o(.text)
    HAL_I2C_Mem_Read_DMA                     0x0802eead   Thumb Code   366  stm32f4xx_hal_i2c.o(.text)
    HAL_I2C_IsDeviceReady                    0x0802f01b   Thumb Code   426  stm32f4xx_hal_i2c.o(.text)
    HAL_I2C_ListenCpltCallback               0x0802f2a5   Thumb Code     2  stm32f4xx_hal_i2c.o(.text)
    HAL_I2C_AddrCallback                     0x0802f32f   Thumb Code     2  stm32f4xx_hal_i2c.o(.text)
    HAL_I2C_EV_IRQHandler                    0x0802f667   Thumb Code   374  stm32f4xx_hal_i2c.o(.text)
    HAL_I2C_ER_IRQHandler                    0x0802f88d   Thumb Code   332  stm32f4xx_hal_i2c.o(.text)
    HAL_I2C_GetState                         0x0802f9d9   Thumb Code     8  stm32f4xx_hal_i2c.o(.text)
    HAL_I2C_GetMode                          0x0802f9e1   Thumb Code     8  stm32f4xx_hal_i2c.o(.text)
    HAL_I2C_GetError                         0x0802f9e9   Thumb Code     6  stm32f4xx_hal_i2c.o(.text)
    HAL_NOR_Init                             0x0802f9f7   Thumb Code    94  stm32f4xx_hal_nor.o(.text)
    HAL_NOR_DeInit                           0x0802fa57   Thumb Code    34  stm32f4xx_hal_nor.o(.text)
    HAL_NOR_MspWait                          0x0802fa79   Thumb Code     2  stm32f4xx_hal_nor.o(.text)
    HAL_NOR_Read_ID                          0x0802fa7b   Thumb Code   136  stm32f4xx_hal_nor.o(.text)
    HAL_NOR_ReturnToReadMode                 0x0802fb03   Thumb Code    98  stm32f4xx_hal_nor.o(.text)
    HAL_NOR_Read                             0x0802fb65   Thumb Code   122  stm32f4xx_hal_nor.o(.text)
    HAL_NOR_Program                          0x0802fbdf   Thumb Code   126  stm32f4xx_hal_nor.o(.text)
    HAL_NOR_ReadBuffer                       0x0802fc5d   Thumb Code   134  stm32f4xx_hal_nor.o(.text)
    HAL_NOR_ProgramBuffer                    0x0802fce3   Thumb Code   172  stm32f4xx_hal_nor.o(.text)
    HAL_NOR_Erase_Block                      0x0802fd8f   Thumb Code   138  stm32f4xx_hal_nor.o(.text)
    HAL_NOR_Erase_Chip                       0x0802fe19   Thumb Code   138  stm32f4xx_hal_nor.o(.text)
    HAL_NOR_Read_CFI                         0x0802fea3   Thumb Code   124  stm32f4xx_hal_nor.o(.text)
    HAL_NOR_WriteOperation_Enable            0x0802ff1f   Thumb Code    54  stm32f4xx_hal_nor.o(.text)
    HAL_NOR_WriteOperation_Disable           0x0802ff55   Thumb Code    60  stm32f4xx_hal_nor.o(.text)
    HAL_NOR_GetState                         0x0802ff91   Thumb Code     8  stm32f4xx_hal_nor.o(.text)
    HAL_NOR_GetStatus                        0x0802ff99   Thumb Code   132  stm32f4xx_hal_nor.o(.text)
    HAL_PCD_Init                             0x0803001f   Thumb Code   322  stm32f4xx_hal_pcd.o(.text)
    HAL_PCD_Stop                             0x08030163   Thumb Code    58  stm32f4xx_hal_pcd.o(.text)
    HAL_PCD_DeInit                           0x0803019d   Thumb Code    38  stm32f4xx_hal_pcd.o(.text)
    HAL_PCD_Start                            0x080301c3   Thumb Code    52  stm32f4xx_hal_pcd.o(.text)
    HAL_PCD_IRQHandler                       0x080302af   Thumb Code  1374  stm32f4xx_hal_pcd.o(.text)
    HAL_PCD_DevConnect                       0x0803080d   Thumb Code    46  stm32f4xx_hal_pcd.o(.text)
    HAL_PCD_DevDisconnect                    0x0803083b   Thumb Code    46  stm32f4xx_hal_pcd.o(.text)
    HAL_PCD_SetAddress                       0x08030869   Thumb Code    50  stm32f4xx_hal_pcd.o(.text)
    HAL_PCD_EP_Open                          0x0803089b   Thumb Code   140  stm32f4xx_hal_pcd.o(.text)
    HAL_PCD_EP_Close                         0x08030927   Thumb Code   106  stm32f4xx_hal_pcd.o(.text)
    HAL_PCD_EP_Receive                       0x08030991   Thumb Code   120  stm32f4xx_hal_pcd.o(.text)
    HAL_PCD_EP_GetRxCount                    0x08030a09   Thumb Code    24  stm32f4xx_hal_pcd.o(.text)
    HAL_PCD_EP_Transmit                      0x08030a21   Thumb Code   122  stm32f4xx_hal_pcd.o(.text)
    HAL_PCD_EP_SetStall                      0x08030a9b   Thumb Code   122  stm32f4xx_hal_pcd.o(.text)
    HAL_PCD_EP_ClrStall                      0x08030b15   Thumb Code   104  stm32f4xx_hal_pcd.o(.text)
    HAL_PCD_EP_Flush                         0x08030b7d   Thumb Code    68  stm32f4xx_hal_pcd.o(.text)
    HAL_PCD_ActivateRemoteWakeup             0x08030bc1   Thumb Code    36  stm32f4xx_hal_pcd.o(.text)
    HAL_PCD_DeActivateRemoteWakeup           0x08030be5   Thumb Code    24  stm32f4xx_hal_pcd.o(.text)
    HAL_PCD_GetState                         0x08030bfd   Thumb Code     8  stm32f4xx_hal_pcd.o(.text)
    HAL_PCDEx_SetTxFiFo                      0x08030c05   Thumb Code    82  stm32f4xx_hal_pcd_ex.o(.text)
    HAL_PCDEx_SetRxFiFo                      0x08030c57   Thumb Code    10  stm32f4xx_hal_pcd_ex.o(.text)
    HAL_RCC_OscConfig                        0x08030c63   Thumb Code   906  stm32f4xx_hal_rcc.o(.text)
    HAL_RCC_ClockConfig                      0x08030fed   Thumb Code   450  stm32f4xx_hal_rcc.o(.text)
    HAL_RCC_MCOConfig                        0x080311af   Thumb Code   186  stm32f4xx_hal_rcc.o(.text)
    HAL_RCC_EnableCSS                        0x08031269   Thumb Code     8  stm32f4xx_hal_rcc.o(.text)
    HAL_RCC_DisableCSS                       0x08031271   Thumb Code     8  stm32f4xx_hal_rcc.o(.text)
    HAL_RCC_GetSysClockFreq                  0x08031279   Thumb Code   170  stm32f4xx_hal_rcc.o(.text)
    HAL_RCC_GetHCLKFreq                      0x08031323   Thumb Code    44  stm32f4xx_hal_rcc.o(.text)
    HAL_RCC_GetPCLK1Freq                     0x0803134f   Thumb Code    38  stm32f4xx_hal_rcc.o(.text)
    HAL_RCC_GetPCLK2Freq                     0x08031375   Thumb Code    38  stm32f4xx_hal_rcc.o(.text)
    HAL_RCC_GetOscConfig                     0x0803139b   Thumb Code   316  stm32f4xx_hal_rcc.o(.text)
    HAL_RCC_GetClockConfig                   0x080314d7   Thumb Code    66  stm32f4xx_hal_rcc.o(.text)
    HAL_RCC_CSSCallback                      0x08031519   Thumb Code     2  stm32f4xx_hal_rcc.o(.text)
    HAL_RCC_NMI_IRQHandler                   0x0803151b   Thumb Code    30  stm32f4xx_hal_rcc.o(.text)
    HAL_RNG_Init                             0x08031543   Thumb Code    74  stm32f4xx_hal_rng.o(.text)
    HAL_RNG_DeInit                           0x0803158f   Thumb Code    54  stm32f4xx_hal_rng.o(.text)
    HAL_RNG_GenerateRandomNumber             0x080315c5   Thumb Code   118  stm32f4xx_hal_rng.o(.text)
    HAL_RNG_GenerateRandomNumber_IT          0x0803163b   Thumb Code    68  stm32f4xx_hal_rng.o(.text)
    HAL_RNG_ReadyDataCallback                0x0803167f   Thumb Code     2  stm32f4xx_hal_rng.o(.text)
    HAL_RNG_ErrorCallback                    0x08031681   Thumb Code     2  stm32f4xx_hal_rng.o(.text)
    HAL_RNG_IRQHandler                       0x08031683   Thumb Code    90  stm32f4xx_hal_rng.o(.text)
    HAL_RNG_GetRandomNumber                  0x080316dd   Thumb Code    24  stm32f4xx_hal_rng.o(.text)
    HAL_RNG_GetRandomNumber_IT               0x080316f5   Thumb Code    46  stm32f4xx_hal_rng.o(.text)
    HAL_RNG_ReadLastRandomNumber             0x08031723   Thumb Code     6  stm32f4xx_hal_rng.o(.text)
    HAL_RNG_GetState                         0x08031729   Thumb Code     6  stm32f4xx_hal_rng.o(.text)
    HAL_SD_Get_CardInfo                      0x080318e5   Thumb Code   756  stm32f4xx_hal_sd.o(.text)
    HAL_SD_Init                              0x08031ff1   Thumb Code   156  stm32f4xx_hal_sd.o(.text)
    HAL_SD_DeInit                            0x0803209f   Thumb Code    20  stm32f4xx_hal_sd.o(.text)
    HAL_SD_StopTransfer                      0x080320b3   Thumb Code    54  stm32f4xx_hal_sd.o(.text)
    HAL_SD_ReadBlocks                        0x080320e9   Thumb Code   506  stm32f4xx_hal_sd.o(.text)
    HAL_SD_WriteBlocks                       0x080324b3   Thumb Code   650  stm32f4xx_hal_sd.o(.text)
    HAL_SD_DMA_RxErrorCallback               0x0803273d   Thumb Code     2  stm32f4xx_hal_sd.o(.text)
    HAL_SD_DMA_RxCpltCallback                0x0803274d   Thumb Code     2  stm32f4xx_hal_sd.o(.text)
    HAL_SD_ReadBlocks_DMA                    0x08032775   Thumb Code   274  stm32f4xx_hal_sd.o(.text)
    HAL_SD_DMA_TxErrorCallback               0x08032887   Thumb Code     2  stm32f4xx_hal_sd.o(.text)
    HAL_SD_DMA_TxCpltCallback                0x08032897   Thumb Code     2  stm32f4xx_hal_sd.o(.text)
    HAL_SD_WriteBlocks_DMA                   0x080328b9   Thumb Code   270  stm32f4xx_hal_sd.o(.text)
    HAL_SD_CheckReadOperation                0x080329c7   Thumb Code   130  stm32f4xx_hal_sd.o(.text)
    HAL_SD_GetStatus                         0x08032ab7   Thumb Code    34  stm32f4xx_hal_sd.o(.text)
    HAL_SD_CheckWriteOperation               0x08032ad9   Thumb Code   142  stm32f4xx_hal_sd.o(.text)
    HAL_SD_Erase                             0x08032b67   Thumb Code   358  stm32f4xx_hal_sd.o(.text)
    HAL_SD_XferErrorCallback                 0x08032ccd   Thumb Code     2  stm32f4xx_hal_sd.o(.text)
    HAL_SD_XferCpltCallback                  0x08032ccf   Thumb Code     2  stm32f4xx_hal_sd.o(.text)
    HAL_SD_IRQHandler                        0x08032cd1   Thumb Code   192  stm32f4xx_hal_sd.o(.text)
    HAL_SD_WideBusOperation_Config           0x08033035   Thumb Code   126  stm32f4xx_hal_sd.o(.text)
    HAL_SD_HighSpeed                         0x080330b3   Thumb Code   386  stm32f4xx_hal_sd.o(.text)
    HAL_SD_SendSDStatus                      0x08033235   Thumb Code   364  stm32f4xx_hal_sd.o(.text)
    HAL_SD_GetCardStatus                     0x080333a1   Thumb Code   174  stm32f4xx_hal_sd.o(.text)
    HAL_SMARTCARD_Init                       0x08033647   Thumb Code   180  stm32f4xx_hal_smartcard.o(.text)
    HAL_SMARTCARD_DeInit                     0x080336fd   Thumb Code    58  stm32f4xx_hal_smartcard.o(.text)
    HAL_SMARTCARD_Transmit                   0x08033807   Thumb Code   162  stm32f4xx_hal_smartcard.o(.text)
    HAL_SMARTCARD_Receive                    0x080338a9   Thumb Code   132  stm32f4xx_hal_smartcard.o(.text)
    HAL_SMARTCARD_Transmit_IT                0x0803392d   Thumb Code   112  stm32f4xx_hal_smartcard.o(.text)
    HAL_SMARTCARD_Receive_IT                 0x0803399d   Thumb Code   112  stm32f4xx_hal_smartcard.o(.text)
    HAL_SMARTCARD_ErrorCallback              0x08033a0d   Thumb Code     2  stm32f4xx_hal_smartcard.o(.text)
    HAL_SMARTCARD_Transmit_DMA               0x08033a53   Thumb Code   128  stm32f4xx_hal_smartcard.o(.text)
    HAL_SMARTCARD_RxCpltCallback             0x08033ad3   Thumb Code     2  stm32f4xx_hal_smartcard.o(.text)
    HAL_SMARTCARD_Receive_DMA                0x08033af9   Thumb Code   118  stm32f4xx_hal_smartcard.o(.text)
    HAL_SMARTCARD_TxCpltCallback             0x08033b6f   Thumb Code     2  stm32f4xx_hal_smartcard.o(.text)
    HAL_SMARTCARD_IRQHandler                 0x08033c45   Thumb Code   284  stm32f4xx_hal_smartcard.o(.text)
    HAL_SMARTCARD_GetState                   0x08033d61   Thumb Code    20  stm32f4xx_hal_smartcard.o(.text)
    HAL_SMARTCARD_GetError                   0x08033d75   Thumb Code     6  stm32f4xx_hal_smartcard.o(.text)
    HAL_SPI_Init                             0x08033d8b   Thumb Code   160  stm32f4xx_hal_spi.o(.text)
    HAL_SPI_DeInit                           0x08033e2d   Thumb Code    54  stm32f4xx_hal_spi.o(.text)
    HAL_SPI_Transmit                         0x08033f2b   Thumb Code   406  stm32f4xx_hal_spi.o(.text)
    HAL_SPI_TransmitReceive                  0x080340eb   Thumb Code   576  stm32f4xx_hal_spi.o(.text)
    HAL_SPI_Receive                          0x0803432b   Thumb Code   552  stm32f4xx_hal_spi.o(.text)
    HAL_SPI_TxCpltCallback                   0x08034553   Thumb Code     2  stm32f4xx_hal_spi.o(.text)
    HAL_SPI_ErrorCallback                    0x08034555   Thumb Code     2  stm32f4xx_hal_spi.o(.text)
    HAL_SPI_Transmit_IT                      0x08034625   Thumb Code   214  stm32f4xx_hal_spi.o(.text)
    HAL_SPI_RxCpltCallback                   0x080346fb   Thumb Code     2  stm32f4xx_hal_spi.o(.text)
    HAL_SPI_TxRxCpltCallback                 0x08034835   Thumb Code     2  stm32f4xx_hal_spi.o(.text)
    HAL_SPI_TransmitReceive_IT               0x08034a27   Thumb Code   238  stm32f4xx_hal_spi.o(.text)
    HAL_SPI_Receive_IT                       0x08034b15   Thumb Code   232  stm32f4xx_hal_spi.o(.text)
    HAL_SPI_TxHalfCpltCallback               0x08034c97   Thumb Code     2  stm32f4xx_hal_spi.o(.text)
    HAL_SPI_Transmit_DMA                     0x08034ca7   Thumb Code   228  stm32f4xx_hal_spi.o(.text)
    HAL_SPI_RxHalfCpltCallback               0x08034e2d   Thumb Code     2  stm32f4xx_hal_spi.o(.text)
    HAL_SPI_TxRxHalfCpltCallback             0x08034f0b   Thumb Code     2  stm32f4xx_hal_spi.o(.text)
    HAL_SPI_TransmitReceive_DMA              0x08034f1b   Thumb Code   314  stm32f4xx_hal_spi.o(.text)
    HAL_SPI_Receive_DMA                      0x08035055   Thumb Code   258  stm32f4xx_hal_spi.o(.text)
    HAL_SPI_DMAPause                         0x08035157   Thumb Code    50  stm32f4xx_hal_spi.o(.text)
    HAL_SPI_DMAResume                        0x08035189   Thumb Code    50  stm32f4xx_hal_spi.o(.text)
    HAL_SPI_DMAStop                          0x080351bb   Thumb Code    46  stm32f4xx_hal_spi.o(.text)
    HAL_SPI_IRQHandler                       0x080351e9   Thumb Code   222  stm32f4xx_hal_spi.o(.text)
    HAL_SPI_GetState                         0x080352c7   Thumb Code     8  stm32f4xx_hal_spi.o(.text)
    HAL_SPI_GetError                         0x080352cf   Thumb Code     6  stm32f4xx_hal_spi.o(.text)
    TIM_Base_SetConfig                       0x080352e9   Thumb Code   184  stm32f4xx_hal_tim.o(.text)
    HAL_TIM_Base_MspInit                     0x080353a1   Thumb Code     2  stm32f4xx_hal_tim.o(.text)
    HAL_TIM_Base_Init                        0x080353a3   Thumb Code    52  stm32f4xx_hal_tim.o(.text)
    HAL_TIM_Base_MspDeInit                   0x080353d7   Thumb Code     2  stm32f4xx_hal_tim.o(.text)
    HAL_TIM_Base_DeInit                      0x080353d9   Thumb Code    70  stm32f4xx_hal_tim.o(.text)
    HAL_TIM_Base_Start                       0x0803541f   Thumb Code    30  stm32f4xx_hal_tim.o(.text)
    HAL_TIM_Base_Stop                        0x0803543d   Thumb Code    56  stm32f4xx_hal_tim.o(.text)
    HAL_TIM_Base_Start_IT                    0x08035475   Thumb Code    30  stm32f4xx_hal_tim.o(.text)
    HAL_TIM_Base_Stop_IT                     0x08035493   Thumb Code    56  stm32f4xx_hal_tim.o(.text)
    HAL_TIM_ErrorCallback                    0x080354cb   Thumb Code     2  stm32f4xx_hal_tim.o(.text)
    TIM_DMAError                             0x080354cd   Thumb Code    20  stm32f4xx_hal_tim.o(.text)
    HAL_TIM_PeriodElapsedCallback            0x080354e1   Thumb Code     2  stm32f4xx_hal_tim.o(.text)
    HAL_TIM_Base_Start_DMA                   0x080354f7   Thumb Code    96  stm32f4xx_hal_tim.o(.text)
    HAL_TIM_Base_Stop_DMA                    0x08035557   Thumb Code    62  stm32f4xx_hal_tim.o(.text)
    HAL_TIM_OC_MspInit                       0x08035595   Thumb Code     2  stm32f4xx_hal_tim.o(.text)
    HAL_TIM_OC_Init                          0x08035597   Thumb Code    52  stm32f4xx_hal_tim.o(.text)
    HAL_TIM_OC_MspDeInit                     0x080355cb   Thumb Code     2  stm32f4xx_hal_tim.o(.text)
    HAL_TIM_OC_DeInit                        0x080355cd   Thumb Code    70  stm32f4xx_hal_tim.o(.text)
    TIM_CCxChannelCmd                        0x08035613   Thumb Code    28  stm32f4xx_hal_tim.o(.text)
    HAL_TIM_OC_Start                         0x0803562f   Thumb Code    68  stm32f4xx_hal_tim.o(.text)
    HAL_TIM_OC_Stop                          0x08035673   Thumb Code   170  stm32f4xx_hal_tim.o(.text)
    HAL_TIM_OC_Start_IT                      0x0803571d   Thumb Code   144  stm32f4xx_hal_tim.o(.text)
    HAL_TIM_OC_Stop_IT                       0x080357ad   Thumb Code   196  stm32f4xx_hal_tim.o(.text)
    HAL_TIM_PWM_PulseFinishedCallback        0x08035871   Thumb Code     2  stm32f4xx_hal_tim.o(.text)
    TIM_DMADelayPulseCplt                    0x08035873   Thumb Code    70  stm32f4xx_hal_tim.o(.text)
    HAL_TIM_OC_Start_DMA                     0x080358b9   Thumb Code   310  stm32f4xx_hal_tim.o(.text)
    HAL_TIM_OC_Stop_DMA                      0x080359ef   Thumb Code   202  stm32f4xx_hal_tim.o(.text)
    HAL_TIM_PWM_Init                         0x08035abb   Thumb Code    52  stm32f4xx_hal_tim.o(.text)
    HAL_TIM_PWM_DeInit                       0x08035af1   Thumb Code    70  stm32f4xx_hal_tim.o(.text)
    HAL_TIM_PWM_Start                        0x08035b37   Thumb Code    78  stm32f4xx_hal_tim.o(.text)
    HAL_TIM_PWM_Stop                         0x08035b85   Thumb Code   126  stm32f4xx_hal_tim.o(.text)
    HAL_TIM_PWM_Start_IT                     0x08035c03   Thumb Code   144  stm32f4xx_hal_tim.o(.text)
    HAL_TIM_PWM_Stop_IT                      0x08035c93   Thumb Code   196  stm32f4xx_hal_tim.o(.text)
    HAL_TIM_PWM_Start_DMA                    0x08035d57   Thumb Code   310  stm32f4xx_hal_tim.o(.text)
    HAL_TIM_PWM_Stop_DMA                     0x08035e8d   Thumb Code   202  stm32f4xx_hal_tim.o(.text)
    HAL_TIM_IC_MspInit                       0x08035f57   Thumb Code     2  stm32f4xx_hal_tim.o(.text)
    HAL_TIM_IC_Init                          0x08035f59   Thumb Code    60  stm32f4xx_hal_tim.o(.text)
    HAL_TIM_IC_MspDeInit                     0x08035f95   Thumb Code     2  stm32f4xx_hal_tim.o(.text)
    HAL_TIM_IC_DeInit                        0x08035f97   Thumb Code    70  stm32f4xx_hal_tim.o(.text)
    HAL_TIM_IC_Start                         0x08035fdd   Thumb Code    32  stm32f4xx_hal_tim.o(.text)
    HAL_TIM_IC_Stop                          0x08035ffd   Thumb Code    58  stm32f4xx_hal_tim.o(.text)
    HAL_TIM_IC_Start_IT                      0x08036037   Thumb Code   108  stm32f4xx_hal_tim.o(.text)
    HAL_TIM_IC_Stop_IT                       0x080360a3   Thumb Code   134  stm32f4xx_hal_tim.o(.text)
    HAL_TIM_IC_CaptureCallback               0x08036129   Thumb Code     2  stm32f4xx_hal_tim.o(.text)
    TIM_DMACaptureCplt                       0x0803612b   Thumb Code    70  stm32f4xx_hal_tim.o(.text)
    HAL_TIM_IC_Start_DMA                     0x08036171   Thumb Code   274  stm32f4xx_hal_tim.o(.text)
    HAL_TIM_IC_Stop_DMA                      0x08036283   Thumb Code   140  stm32f4xx_hal_tim.o(.text)
    HAL_TIM_OnePulse_MspInit                 0x0803630f   Thumb Code     2  stm32f4xx_hal_tim.o(.text)
    HAL_TIM_OnePulse_Init                    0x08036311   Thumb Code    76  stm32f4xx_hal_tim.o(.text)
    HAL_TIM_OnePulse_MspDeInit               0x0803635d   Thumb Code     2  stm32f4xx_hal_tim.o(.text)
    HAL_TIM_OnePulse_DeInit                  0x0803635f   Thumb Code    70  stm32f4xx_hal_tim.o(.text)
    HAL_TIM_OnePulse_Start                   0x080363a5   Thumb Code    66  stm32f4xx_hal_tim.o(.text)
    HAL_TIM_OnePulse_Stop                    0x080363e7   Thumb Code   130  stm32f4xx_hal_tim.o(.text)
    HAL_TIM_OnePulse_Start_IT                0x08036469   Thumb Code    90  stm32f4xx_hal_tim.o(.text)
    HAL_TIM_OnePulse_Stop_IT                 0x080364c3   Thumb Code   154  stm32f4xx_hal_tim.o(.text)
    HAL_TIM_Encoder_MspInit                  0x0803655d   Thumb Code     2  stm32f4xx_hal_tim.o(.text)
    HAL_TIM_Encoder_Init                     0x0803655f   Thumb Code   180  stm32f4xx_hal_tim.o(.text)
    HAL_TIM_Encoder_MspDeInit                0x08036613   Thumb Code     2  stm32f4xx_hal_tim.o(.text)
    HAL_TIM_Encoder_DeInit                   0x08036615   Thumb Code    70  stm32f4xx_hal_tim.o(.text)
    HAL_TIM_Encoder_Start                    0x0803665b   Thumb Code    78  stm32f4xx_hal_tim.o(.text)
    HAL_TIM_Encoder_Stop                     0x080366a9   Thumb Code   104  stm32f4xx_hal_tim.o(.text)
    HAL_TIM_Encoder_Start_IT                 0x08036711   Thumb Code   126  stm32f4xx_hal_tim.o(.text)
    HAL_TIM_Encoder_Stop_IT                  0x0803678f   Thumb Code   162  stm32f4xx_hal_tim.o(.text)
    HAL_TIM_Encoder_Start_DMA                0x08036831   Thumb Code   328  stm32f4xx_hal_tim.o(.text)
    HAL_TIM_Encoder_Stop_DMA                 0x08036979   Thumb Code   152  stm32f4xx_hal_tim.o(.text)
    HAL_TIM_TriggerCallback                  0x08036a11   Thumb Code     2  stm32f4xx_hal_tim.o(.text)
    HAL_TIM_OC_DelayElapsedCallback          0x08036a13   Thumb Code     2  stm32f4xx_hal_tim.o(.text)
    HAL_TIM_IRQHandler                       0x08036a15   Thumb Code   406  stm32f4xx_hal_tim.o(.text)
    TIM_OC2_SetConfig                        0x08036c7d   Thumb Code   112  stm32f4xx_hal_tim.o(.text)
    HAL_TIM_OC_ConfigChannel                 0x08036d53   Thumb Code   116  stm32f4xx_hal_tim.o(.text)
    TIM_TI1_SetConfig                        0x08036e81   Thumb Code   122  stm32f4xx_hal_tim.o(.text)
    HAL_TIM_IC_ConfigChannel                 0x08036efb   Thumb Code   224  stm32f4xx_hal_tim.o(.text)
    HAL_TIM_PWM_ConfigChannel                0x08036fdb   Thumb Code   294  stm32f4xx_hal_tim.o(.text)
    HAL_TIM_OnePulse_ConfigChannel           0x08037101   Thumb Code   286  stm32f4xx_hal_tim.o(.text)
    HAL_TIM_DMABurst_WriteStart              0x08037233   Thumb Code   366  stm32f4xx_hal_tim.o(.text)
    HAL_TIM_DMABurst_WriteStop               0x080373a1   Thumb Code   128  stm32f4xx_hal_tim.o(.text)
    HAL_TIM_DMABurst_ReadStart               0x08037421   Thumb Code   366  stm32f4xx_hal_tim.o(.text)
    HAL_TIM_DMABurst_ReadStop                0x0803758f   Thumb Code   128  stm32f4xx_hal_tim.o(.text)
    HAL_TIM_GenerateEvent                    0x0803760f   Thumb Code    54  stm32f4xx_hal_tim.o(.text)
    HAL_TIM_ConfigOCrefClear                 0x0803765d   Thumb Code   252  stm32f4xx_hal_tim.o(.text)
    HAL_TIM_ConfigClockSource                0x080377c3   Thumb Code   306  stm32f4xx_hal_tim.o(.text)
    HAL_TIM_ConfigTI1Input                   0x080378f5   Thumb Code    24  stm32f4xx_hal_tim.o(.text)
    HAL_TIM_SlaveConfigSynchronization       0x080379b1   Thumb Code    86  stm32f4xx_hal_tim.o(.text)
    HAL_TIM_SlaveConfigSynchronization_IT    0x08037a07   Thumb Code    86  stm32f4xx_hal_tim.o(.text)
    HAL_TIM_ReadCapturedValue                0x08037a5d   Thumb Code    84  stm32f4xx_hal_tim.o(.text)
    HAL_TIM_Base_GetState                    0x08037ab1   Thumb Code     8  stm32f4xx_hal_tim.o(.text)
    HAL_TIM_OC_GetState                      0x08037ab9   Thumb Code     8  stm32f4xx_hal_tim.o(.text)
    HAL_TIM_PWM_GetState                     0x08037ac1   Thumb Code     8  stm32f4xx_hal_tim.o(.text)
    HAL_TIM_IC_GetState                      0x08037ac9   Thumb Code     8  stm32f4xx_hal_tim.o(.text)
    HAL_TIM_OnePulse_GetState                0x08037ad1   Thumb Code     8  stm32f4xx_hal_tim.o(.text)
    HAL_TIM_Encoder_GetState                 0x08037ad9   Thumb Code     8  stm32f4xx_hal_tim.o(.text)
    HAL_TIMEx_HallSensor_MspInit             0x08037ae1   Thumb Code     2  stm32f4xx_hal_tim_ex.o(.text)
    HAL_TIMEx_HallSensor_Init                0x08037ae3   Thumb Code   196  stm32f4xx_hal_tim_ex.o(.text)
    HAL_TIMEx_HallSensor_MspDeInit           0x08037ba7   Thumb Code     2  stm32f4xx_hal_tim_ex.o(.text)
    HAL_TIMEx_HallSensor_DeInit              0x08037ba9   Thumb Code    70  stm32f4xx_hal_tim_ex.o(.text)
    HAL_TIMEx_HallSensor_Start               0x08037bef   Thumb Code    30  stm32f4xx_hal_tim_ex.o(.text)
    HAL_TIMEx_HallSensor_Stop                0x08037c0d   Thumb Code    56  stm32f4xx_hal_tim_ex.o(.text)
    HAL_TIMEx_HallSensor_Start_IT            0x08037c45   Thumb Code    42  stm32f4xx_hal_tim_ex.o(.text)
    HAL_TIMEx_HallSensor_Stop_IT             0x08037c6f   Thumb Code    68  stm32f4xx_hal_tim_ex.o(.text)
    HAL_TIMEx_HallSensor_Start_DMA           0x08037cb3   Thumb Code   104  stm32f4xx_hal_tim_ex.o(.text)
    HAL_TIMEx_HallSensor_Stop_DMA            0x08037d1b   Thumb Code    68  stm32f4xx_hal_tim_ex.o(.text)
    HAL_TIMEx_OCN_Start                      0x08037d7b   Thumb Code    44  stm32f4xx_hal_tim_ex.o(.text)
    HAL_TIMEx_OCN_Stop                       0x08037da7   Thumb Code    96  stm32f4xx_hal_tim_ex.o(.text)
    HAL_TIMEx_OCN_Start_IT                   0x08037e07   Thumb Code   132  stm32f4xx_hal_tim_ex.o(.text)
    HAL_TIMEx_OCN_Stop_IT                    0x08037e8b   Thumb Code   196  stm32f4xx_hal_tim_ex.o(.text)
    HAL_TIMEx_OCN_Start_DMA                  0x08037f4f   Thumb Code   270  stm32f4xx_hal_tim_ex.o(.text)
    HAL_TIMEx_OCN_Stop_DMA                   0x0803805d   Thumb Code   192  stm32f4xx_hal_tim_ex.o(.text)
    HAL_TIMEx_PWMN_Start                     0x0803811d   Thumb Code    44  stm32f4xx_hal_tim_ex.o(.text)
    HAL_TIMEx_PWMN_Stop                      0x08038149   Thumb Code    96  stm32f4xx_hal_tim_ex.o(.text)
    HAL_TIMEx_PWMN_Start_IT                  0x080381a9   Thumb Code   132  stm32f4xx_hal_tim_ex.o(.text)
    HAL_TIMEx_PWMN_Stop_IT                   0x0803822d   Thumb Code   196  stm32f4xx_hal_tim_ex.o(.text)
    HAL_TIMEx_PWMN_Start_DMA                 0x080382f1   Thumb Code   270  stm32f4xx_hal_tim_ex.o(.text)
    HAL_TIMEx_PWMN_Stop_DMA                  0x080383ff   Thumb Code   178  stm32f4xx_hal_tim_ex.o(.text)
    HAL_TIMEx_OnePulseN_Start                0x080384b1   Thumb Code    32  stm32f4xx_hal_tim_ex.o(.text)
    HAL_TIMEx_OnePulseN_Stop                 0x080384d1   Thumb Code    96  stm32f4xx_hal_tim_ex.o(.text)
    HAL_TIMEx_OnePulseN_Start_IT             0x08038531   Thumb Code    56  stm32f4xx_hal_tim_ex.o(.text)
    HAL_TIMEx_OnePulseN_Stop_IT              0x08038569   Thumb Code   120  stm32f4xx_hal_tim_ex.o(.text)
    HAL_TIMEx_ConfigCommutationEvent         0x080385e1   Thumb Code   110  stm32f4xx_hal_tim_ex.o(.text)
    HAL_TIMEx_ConfigCommutationEvent_IT      0x0803864f   Thumb Code   122  stm32f4xx_hal_tim_ex.o(.text)
    HAL_TIMEx_CommutationCallback            0x080386c9   Thumb Code     2  stm32f4xx_hal_tim_ex.o(.text)
    TIMEx_DMACommutationCplt                 0x080386cb   Thumb Code    20  stm32f4xx_hal_tim_ex.o(.text)
    HAL_TIMEx_ConfigCommutationEvent_DMA     0x080386df   Thumb Code   146  stm32f4xx_hal_tim_ex.o(.text)
    HAL_TIMEx_MasterConfigSynchronization    0x08038771   Thumb Code    98  stm32f4xx_hal_tim_ex.o(.text)
    HAL_TIMEx_ConfigBreakDeadTime            0x080387d3   Thumb Code    80  stm32f4xx_hal_tim_ex.o(.text)
    HAL_TIMEx_RemapConfig                    0x08038823   Thumb Code    48  stm32f4xx_hal_tim_ex.o(.text)
    HAL_TIMEx_BreakCallback                  0x08038853   Thumb Code     2  stm32f4xx_hal_tim_ex.o(.text)
    HAL_TIMEx_HallSensor_GetState            0x08038855   Thumb Code     8  stm32f4xx_hal_tim_ex.o(.text)
    HAL_UART_Init                            0x08038bc3   Thumb Code   114  stm32f4xx_hal_uart.o(.text)
    HAL_HalfDuplex_Init                      0x08038c35   Thumb Code   128  stm32f4xx_hal_uart.o(.text)
    HAL_LIN_Init                             0x08038cb5   Thumb Code   142  stm32f4xx_hal_uart.o(.text)
    HAL_MultiProcessor_Init                  0x08038d43   Thumb Code   154  stm32f4xx_hal_uart.o(.text)
    HAL_UART_DeInit                          0x08038ddf   Thumb Code    46  stm32f4xx_hal_uart.o(.text)
    HAL_UART_Transmit                        0x08038f11   Thumb Code   196  stm32f4xx_hal_uart.o(.text)
    HAL_UART_Receive                         0x08038fd5   Thumb Code   204  stm32f4xx_hal_uart.o(.text)
    HAL_UART_Transmit_IT                     0x080390a1   Thumb Code    88  stm32f4xx_hal_uart.o(.text)
    HAL_UART_Receive_IT                      0x080390f9   Thumb Code   112  stm32f4xx_hal_uart.o(.text)
    HAL_UART_ErrorCallback                   0x08039169   Thumb Code     2  stm32f4xx_hal_uart.o(.text)
    HAL_UART_TxHalfCpltCallback              0x08039191   Thumb Code     2  stm32f4xx_hal_uart.o(.text)
    HAL_UART_TxCpltCallback                  0x080391a1   Thumb Code     2  stm32f4xx_hal_uart.o(.text)
    HAL_UART_Transmit_DMA                    0x080391d9   Thumb Code   134  stm32f4xx_hal_uart.o(.text)
    HAL_UART_RxHalfCpltCallback              0x0803925f   Thumb Code     2  stm32f4xx_hal_uart.o(.text)
    HAL_UART_RxCpltCallback                  0x0803926f   Thumb Code     2  stm32f4xx_hal_uart.o(.text)
    HAL_UART_Receive_DMA                     0x0803929f   Thumb Code   124  stm32f4xx_hal_uart.o(.text)
    HAL_UART_DMAPause                        0x0803931b   Thumb Code    78  stm32f4xx_hal_uart.o(.text)
    HAL_UART_DMAResume                       0x08039369   Thumb Code   102  stm32f4xx_hal_uart.o(.text)
    HAL_UART_DMAStop                         0x080393cf   Thumb Code    62  stm32f4xx_hal_uart.o(.text)
    HAL_UART_IRQHandler                      0x0803953b   Thumb Code   330  stm32f4xx_hal_uart.o(.text)
    HAL_LIN_SendBreak                        0x08039685   Thumb Code    62  stm32f4xx_hal_uart.o(.text)
    HAL_MultiProcessor_EnterMuteMode         0x080396c3   Thumb Code    62  stm32f4xx_hal_uart.o(.text)
    HAL_MultiProcessor_ExitMuteMode          0x08039701   Thumb Code    62  stm32f4xx_hal_uart.o(.text)
    HAL_HalfDuplex_EnableTransmitter         0x0803973f   Thumb Code    68  stm32f4xx_hal_uart.o(.text)
    HAL_HalfDuplex_EnableReceiver            0x08039783   Thumb Code    68  stm32f4xx_hal_uart.o(.text)
    HAL_UART_GetState                        0x080397c7   Thumb Code    20  stm32f4xx_hal_uart.o(.text)
    HAL_UART_GetError                        0x080397db   Thumb Code     6  stm32f4xx_hal_uart.o(.text)
    FMC_NORSRAM_Init                         0x080397e1   Thumb Code   112  stm32f4xx_ll_fmc.o(.text)
    FMC_NORSRAM_DeInit                       0x08039851   Thumb Code    56  stm32f4xx_ll_fmc.o(.text)
    FMC_NORSRAM_Timing_Init                  0x08039889   Thumb Code    94  stm32f4xx_ll_fmc.o(.text)
    FMC_NORSRAM_Extended_Timing_Init         0x080398e7   Thumb Code    66  stm32f4xx_ll_fmc.o(.text)
    FMC_NORSRAM_WriteOperation_Enable        0x08039929   Thumb Code    18  stm32f4xx_ll_fmc.o(.text)
    FMC_NORSRAM_WriteOperation_Disable       0x0803993b   Thumb Code    18  stm32f4xx_ll_fmc.o(.text)
    FMC_NAND_Init                            0x0803994d   Thumb Code    70  stm32f4xx_ll_fmc.o(.text)
    FMC_NAND_CommonSpace_Timing_Init         0x08039993   Thumb Code    54  stm32f4xx_ll_fmc.o(.text)
    FMC_NAND_AttributeSpace_Timing_Init      0x080399c9   Thumb Code    54  stm32f4xx_ll_fmc.o(.text)
    FMC_NAND_DeInit                          0x080399ff   Thumb Code    66  stm32f4xx_ll_fmc.o(.text)
    FMC_NAND_ECC_Enable                      0x08039a41   Thumb Code    28  stm32f4xx_ll_fmc.o(.text)
    FMC_NAND_ECC_Disable                     0x08039a5d   Thumb Code    28  stm32f4xx_ll_fmc.o(.text)
    FMC_NAND_GetECC                          0x08039a79   Thumb Code    88  stm32f4xx_ll_fmc.o(.text)
    FMC_PCCARD_Init                          0x08039ad1   Thumb Code    38  stm32f4xx_ll_fmc.o(.text)
    FMC_PCCARD_CommonSpace_Timing_Init       0x08039af7   Thumb Code    38  stm32f4xx_ll_fmc.o(.text)
    FMC_PCCARD_AttributeSpace_Timing_Init    0x08039b1d   Thumb Code    38  stm32f4xx_ll_fmc.o(.text)
    FMC_PCCARD_IOSpace_Timing_Init           0x08039b43   Thumb Code    38  stm32f4xx_ll_fmc.o(.text)
    FMC_PCCARD_DeInit                        0x08039b69   Thumb Code    32  stm32f4xx_ll_fmc.o(.text)
    FMC_SDRAM_Init                           0x08039b89   Thumb Code   134  stm32f4xx_ll_fmc.o(.text)
    FMC_SDRAM_Timing_Init                    0x08039c0f   Thumb Code   152  stm32f4xx_ll_fmc.o(.text)
    FMC_SDRAM_DeInit                         0x08039ca7   Thumb Code    32  stm32f4xx_ll_fmc.o(.text)
    FMC_SDRAM_WriteProtection_Enable         0x08039cc7   Thumb Code    18  stm32f4xx_ll_fmc.o(.text)
    FMC_SDRAM_WriteProtection_Disable        0x08039cd9   Thumb Code    18  stm32f4xx_ll_fmc.o(.text)
    FMC_SDRAM_SendCommand                    0x08039ceb   Thumb Code    82  stm32f4xx_ll_fmc.o(.text)
    FMC_SDRAM_ProgramRefreshRate             0x08039d3d   Thumb Code    14  stm32f4xx_ll_fmc.o(.text)
    FMC_SDRAM_SetAutoRefreshNumber           0x08039d4b   Thumb Code    14  stm32f4xx_ll_fmc.o(.text)
    FMC_SDRAM_GetModeStatus                  0x08039d59   Thumb Code    24  stm32f4xx_ll_fmc.o(.text)
    SDIO_Init                                0x08039d71   Thumb Code    52  stm32f4xx_ll_sdmmc.o(.text)
    SDIO_ReadFIFO                            0x08039da5   Thumb Code     8  stm32f4xx_ll_sdmmc.o(.text)
    SDIO_WriteFIFO                           0x08039dad   Thumb Code    12  stm32f4xx_ll_sdmmc.o(.text)
    SDIO_PowerState_ON                       0x08039db9   Thumb Code    10  stm32f4xx_ll_sdmmc.o(.text)
    SDIO_PowerState_OFF                      0x08039dc3   Thumb Code     8  stm32f4xx_ll_sdmmc.o(.text)
    SDIO_GetPowerState                       0x08039dcb   Thumb Code    10  stm32f4xx_ll_sdmmc.o(.text)
    SDIO_SendCommand                         0x08039dd5   Thumb Code    40  stm32f4xx_ll_sdmmc.o(.text)
    SDIO_GetCommandResponse                  0x08039dfd   Thumb Code     8  stm32f4xx_ll_sdmmc.o(.text)
    SDIO_GetResponse                         0x08039e05   Thumb Code    20  stm32f4xx_ll_sdmmc.o(.text)
    SDIO_DataConfig                          0x08039e19   Thumb Code    44  stm32f4xx_ll_sdmmc.o(.text)
    SDIO_GetDataCounter                      0x08039e45   Thumb Code     6  stm32f4xx_ll_sdmmc.o(.text)
    SDIO_GetFIFOCount                        0x08039e4b   Thumb Code     8  stm32f4xx_ll_sdmmc.o(.text)
    SDIO_SetSDIOReadWaitMode                 0x08039e53   Thumb Code    10  stm32f4xx_ll_sdmmc.o(.text)
    USB_CoreInit                             0x08039eab   Thumb Code   108  stm32f4xx_ll_usb.o(.text)
    USB_EnableGlobalInt                      0x08039f17   Thumb Code    14  stm32f4xx_ll_usb.o(.text)
    USB_DisableGlobalInt                     0x08039f25   Thumb Code    14  stm32f4xx_ll_usb.o(.text)
    USB_SetCurrentMode                       0x08039f33   Thumb Code    48  stm32f4xx_ll_usb.o(.text)
    USB_FlushRxFifo                          0x08039f63   Thumb Code    38  stm32f4xx_ll_usb.o(.text)
    USB_FlushTxFifo                          0x08039f89   Thumb Code    44  stm32f4xx_ll_usb.o(.text)
    USB_SetDevSpeed                          0x08039fb5   Thumb Code    16  stm32f4xx_ll_usb.o(.text)
    USB_DevInit                              0x08039fc5   Thumb Code   396  stm32f4xx_ll_usb.o(.text)
    USB_GetDevSpeed                          0x0803a151   Thumb Code    68  stm32f4xx_ll_usb.o(.text)
    USB_ActivateEndpoint                     0x0803a195   Thumb Code   220  stm32f4xx_ll_usb.o(.text)
    USB_ActivateDedicatedEndpoint            0x0803a271   Thumb Code   276  stm32f4xx_ll_usb.o(.text)
    USB_DeactivateEndpoint                   0x0803a385   Thumb Code   162  stm32f4xx_ll_usb.o(.text)
    USB_DeactivateDedicatedEndpoint          0x0803a427   Thumb Code   112  stm32f4xx_ll_usb.o(.text)
    USB_WritePacket                          0x0803a497   Thumb Code    48  stm32f4xx_ll_usb.o(.text)
    USB_EPStartXfer                          0x0803a4c7   Thumb Code   726  stm32f4xx_ll_usb.o(.text)
    USB_EP0StartXfer                         0x0803a79d   Thumb Code   432  stm32f4xx_ll_usb.o(.text)
    USB_ReadPacket                           0x0803a94d   Thumb Code    34  stm32f4xx_ll_usb.o(.text)
    USB_EPSetStall                           0x0803a96f   Thumb Code   140  stm32f4xx_ll_usb.o(.text)
    USB_EPClearStall                         0x0803a9fb   Thumb Code   136  stm32f4xx_ll_usb.o(.text)
    USB_StopDevice                           0x0803aa83   Thumb Code    86  stm32f4xx_ll_usb.o(.text)
    USB_SetDevAddress                        0x0803aad9   Thumb Code    36  stm32f4xx_ll_usb.o(.text)
    USB_DevConnect                           0x0803aafd   Thumb Code    30  stm32f4xx_ll_usb.o(.text)
    USB_DevDisconnect                        0x0803ab1b   Thumb Code    30  stm32f4xx_ll_usb.o(.text)
    USB_ReadInterrupts                       0x0803ab39   Thumb Code    12  stm32f4xx_ll_usb.o(.text)
    USB_ReadDevAllOutEpInterrupt             0x0803ab45   Thumb Code    18  stm32f4xx_ll_usb.o(.text)
    USB_ReadDevAllInEpInterrupt              0x0803ab57   Thumb Code    18  stm32f4xx_ll_usb.o(.text)
    USB_ReadDevOutEPInterrupt                0x0803ab69   Thumb Code    22  stm32f4xx_ll_usb.o(.text)
    USB_ReadDevInEPInterrupt                 0x0803ab7f   Thumb Code    44  stm32f4xx_ll_usb.o(.text)
    USB_ClearInterrupts                      0x0803abab   Thumb Code     8  stm32f4xx_ll_usb.o(.text)
    USB_GetMode                              0x0803abb3   Thumb Code    10  stm32f4xx_ll_usb.o(.text)
    USB_ActivateSetup                        0x0803abbd   Thumb Code    68  stm32f4xx_ll_usb.o(.text)
    USB_EP0_OutStart                         0x0803ac01   Thumb Code    68  stm32f4xx_ll_usb.o(.text)
    USB_DriveVbus                            0x0803ac45   Thumb Code    68  stm32f4xx_ll_usb.o(.text)
    USB_HostInit                             0x0803ac89   Thumb Code   214  stm32f4xx_ll_usb.o(.text)
    USB_InitFSLSPClkSel                      0x0803ad5f   Thumb Code    62  stm32f4xx_ll_usb.o(.text)
    USB_ResetPort                            0x0803ad9d   Thumb Code    48  stm32f4xx_ll_usb.o(.text)
    USB_GetHostSpeed                         0x0803adcd   Thumb Code    18  stm32f4xx_ll_usb.o(.text)
    USB_GetCurrentFrame                      0x0803addf   Thumb Code    12  stm32f4xx_ll_usb.o(.text)
    USB_HC_Init                              0x0803adeb   Thumb Code   392  stm32f4xx_ll_usb.o(.text)
    USB_DoPing                               0x0803af73   Thumb Code    60  stm32f4xx_ll_usb.o(.text)
    USB_HC_StartXfer                         0x0803afaf   Thumb Code   412  stm32f4xx_ll_usb.o(.text)
    USB_HC_ReadInterrupt                     0x0803b14b   Thumb Code    12  stm32f4xx_ll_usb.o(.text)
    USB_HC_Halt                              0x0803b157   Thumb Code   376  stm32f4xx_ll_usb.o(.text)
    USB_StopHost                             0x0803b2cf   Thumb Code   174  stm32f4xx_ll_usb.o(.text)
    USBD_Init                                0x0803b37d   Thumb Code    50  usbd_core.o(.text)
    USBD_DeInit                              0x0803b3af   Thumb Code    38  usbd_core.o(.text)
    USBD_RegisterClass                       0x0803b3d5   Thumb Code    16  usbd_core.o(.text)
    USBD_Start                               0x0803b3e5   Thumb Code    14  usbd_core.o(.text)
    USBD_Stop                                0x0803b3f3   Thumb Code    26  usbd_core.o(.text)
    USBD_RunTestMode                         0x0803b40d   Thumb Code     6  usbd_core.o(.text)
    USBD_SetClassConfig                      0x0803b413   Thumb Code    34  usbd_core.o(.text)
    USBD_ClrClassConfig                      0x0803b435   Thumb Code    22  usbd_core.o(.text)
    USBD_LL_SetupStage                       0x0803b44b   Thumb Code   110  usbd_core.o(.text)
    USBD_LL_DataOutStage                     0x0803b4b9   Thumb Code   134  usbd_core.o(.text)
    USBD_LL_DataInStage                      0x0803b53f   Thumb Code   218  usbd_core.o(.text)
    USBD_LL_Reset                            0x0803b619   Thumb Code    68  usbd_core.o(.text)
    USBD_LL_SetSpeed                         0x0803b65d   Thumb Code     8  usbd_core.o(.text)
    USBD_LL_Suspend                          0x0803b665   Thumb Code    20  usbd_core.o(.text)
    USBD_LL_Resume                           0x0803b679   Thumb Code    14  usbd_core.o(.text)
    USBD_LL_SOF                              0x0803b687   Thumb Code    34  usbd_core.o(.text)
    USBD_LL_IsoINIncomplete                  0x0803b6a9   Thumb Code     6  usbd_core.o(.text)
    USBD_LL_IsoOUTIncomplete                 0x0803b6af   Thumb Code     6  usbd_core.o(.text)
    USBD_LL_DevConnected                     0x0803b6b5   Thumb Code     6  usbd_core.o(.text)
    USBD_LL_DevDisconnected                  0x0803b6bb   Thumb Code    26  usbd_core.o(.text)
    USBD_CtlError                            0x0803b6d5   Thumb Code    24  usbd_ctlreq.o(.text)
    USBD_StdDevReq                           0x0803ba5f   Thumb Code   114  usbd_ctlreq.o(.text)
    USBD_StdItfReq                           0x0803bad1   Thumb Code    74  usbd_ctlreq.o(.text)
    USBD_StdEPReq                            0x0803bb1b   Thumb Code   346  usbd_ctlreq.o(.text)
    USBD_ParseSetupRequest                   0x0803bc75   Thumb Code    40  usbd_ctlreq.o(.text)
    USBD_GetString                           0x0803bcb1   Thumb Code    82  usbd_ctlreq.o(.text)
    USBD_CtlSendData                         0x0803bd03   Thumb Code    34  usbd_ioreq.o(.text)
    USBD_CtlContinueSendData                 0x0803bd25   Thumb Code    24  usbd_ioreq.o(.text)
    USBD_CtlPrepareRx                        0x0803bd3d   Thumb Code    40  usbd_ioreq.o(.text)
    USBD_CtlContinueRx                       0x0803bd65   Thumb Code    24  usbd_ioreq.o(.text)
    USBD_CtlSendStatus                       0x0803bd7d   Thumb Code    26  usbd_ioreq.o(.text)
    USBD_CtlReceiveStatus                    0x0803bd97   Thumb Code    26  usbd_ioreq.o(.text)
    USBD_GetRxCount                          0x0803bdb1   Thumb Code    18  usbd_ioreq.o(.text)
    USBD_MSC_Init                            0x0803bdc5   Thumb Code   100  usbd_msc.o(.text)
    USBD_MSC_DeInit                          0x0803be29   Thumb Code    52  usbd_msc.o(.text)
    USBD_MSC_Setup                           0x0803be5d   Thumb Code   298  usbd_msc.o(.text)
    USBD_MSC_DataIn                          0x0803bf87   Thumb Code    18  usbd_msc.o(.text)
    USBD_MSC_DataOut                         0x0803bf99   Thumb Code    18  usbd_msc.o(.text)
    USBD_MSC_GetHSCfgDesc                    0x0803bfab   Thumb Code    10  usbd_msc.o(.text)
    USBD_MSC_GetFSCfgDesc                    0x0803bfb5   Thumb Code    10  usbd_msc.o(.text)
    USBD_MSC_GetOtherSpeedCfgDesc            0x0803bfbf   Thumb Code    10  usbd_msc.o(.text)
    USBD_MSC_GetDeviceQualifierDescriptor    0x0803bfc9   Thumb Code    10  usbd_msc.o(.text)
    USBD_MSC_RegisterStorage                 0x0803bfd3   Thumb Code    12  usbd_msc.o(.text)
    MSC_BOT_Init                             0x0803bff1   Thumb Code    70  usbd_msc_bot.o(.text)
    MSC_BOT_Reset                            0x0803c037   Thumb Code    34  usbd_msc_bot.o(.text)
    MSC_BOT_DeInit                           0x0803c059   Thumb Code    10  usbd_msc_bot.o(.text)
    MSC_BOT_SendCSW                          0x0803c063   Thumb Code    60  usbd_msc_bot.o(.text)
    MSC_BOT_DataIn                           0x0803c09f   Thumb Code    80  usbd_msc_bot.o(.text)
    MSC_BOT_DataOut                          0x0803c277   Thumb Code    70  usbd_msc_bot.o(.text)
    MSC_BOT_CplClrFeature                    0x0803c2bd   Thumb Code    54  usbd_msc_bot.o(.text)
    SCSI_SenseCode                           0x0803c2fd   Thumb Code    76  usbd_msc_scsi.o(.text)
    SCSI_ProcessCmd                          0x0803ca6d   Thumb Code   232  usbd_msc_scsi.o(.text)
    malloc                                   0x0803cb61   Thumb Code    94  h1_alloc.o(.text)
    free                                     0x0803cbbf   Thumb Code    78  h1_free.o(.text)
    __aeabi_uldivmod                         0x0803cc0d   Thumb Code     0  lludivv7m.o(.text)
    _ll_udiv                                 0x0803cc0d   Thumb Code   238  lludivv7m.o(.text)
    memcmp                                   0x0803ccfb   Thumb Code    88  memcmp.o(.text)
    __aeabi_memcpy                           0x0803cd53   Thumb Code     0  rt_memcpy_v6.o(.text)
    __rt_memcpy                              0x0803cd53   Thumb Code   138  rt_memcpy_v6.o(.text)
    _memcpy_lastbytes                        0x0803cdb9   Thumb Code     0  rt_memcpy_v6.o(.text)
    __aeabi_memmove                          0x0803cddd   Thumb Code     0  rt_memmove_v6.o(.text)
    __rt_memmove                             0x0803cddd   Thumb Code   132  rt_memmove_v6.o(.text)
    __memmove_lastfew                        0x0803ce3d   Thumb Code     0  rt_memmove_v6.o(.text)
    __aeabi_memcpy4                          0x0803ce61   Thumb Code     0  rt_memcpy_w.o(.text)
    __aeabi_memcpy8                          0x0803ce61   Thumb Code     0  rt_memcpy_w.o(.text)
    __rt_memcpy_w                            0x0803ce61   Thumb Code   100  rt_memcpy_w.o(.text)
    _memcpy_lastbytes_aligned                0x0803cea9   Thumb Code     0  rt_memcpy_w.o(.text)
    __aeabi_memset                           0x0803cec5   Thumb Code    16  aeabi_memset.o(.text)
    __aeabi_memclr                           0x0803ced5   Thumb Code     0  rt_memclr.o(.text)
    __rt_memclr                              0x0803ced5   Thumb Code    68  rt_memclr.o(.text)
    _memset                                  0x0803ced9   Thumb Code     0  rt_memclr.o(.text)
    __aeabi_memclr4                          0x0803cf19   Thumb Code     0  rt_memclr_w.o(.text)
    __aeabi_memclr8                          0x0803cf19   Thumb Code     0  rt_memclr_w.o(.text)
    __rt_memclr_w                            0x0803cf19   Thumb Code    78  rt_memclr_w.o(.text)
    _memset_w                                0x0803cf1d   Thumb Code     0  rt_memclr_w.o(.text)
    __use_two_region_memory                  0x0803cf67   Thumb Code     2  heapauxi.o(.text)
    __rt_heap_escrow                         0x0803cf69   Thumb Code     2  heapauxi.o(.text)
    __rt_heap_expand                         0x0803cf6b   Thumb Code     2  heapauxi.o(.text)
    __rt_heap_descriptor                     0x0803cf6d   Thumb Code     8  rt_heap_descriptor_intlibspace.o(.text)
    __use_no_heap                            0x0803cf75   Thumb Code     2  hguard.o(.text)
    __heap$guard                             0x0803cf77   Thumb Code     2  hguard.o(.text)
    _terminate_user_alloc                    0x0803cf79   Thumb Code     2  init_alloc.o(.text)
    _init_user_alloc                         0x0803cf7b   Thumb Code     2  init_alloc.o(.text)
    __Heap_Full                              0x0803cf7d   Thumb Code    34  init_alloc.o(.text)
    __Heap_Broken                            0x0803cf9f   Thumb Code     6  init_alloc.o(.text)
    _init_alloc                              0x0803cfa5   Thumb Code    94  init_alloc.o(.text)
    __Heap_Initialize                        0x0803d003   Thumb Code    10  h1_init.o(.text)
    __Heap_DescSize                          0x0803d00d   Thumb Code     4  h1_init.o(.text)
    __aeabi_memmove4                         0x0803d011   Thumb Code     0  rt_memmove_w.o(.text)
    __aeabi_memmove8                         0x0803d011   Thumb Code     0  rt_memmove_w.o(.text)
    __rt_memmove_w                           0x0803d011   Thumb Code   122  rt_memmove_w.o(.text)
    __memmove_aligned                        0x0803d037   Thumb Code     0  rt_memmove_w.o(.text)
    __memmove_lastfew_aligned                0x0803d06f   Thumb Code     0  rt_memmove_w.o(.text)
    __user_libspace                          0x0803d08d   Thumb Code     8  libspace.o(.text)
    __user_perproc_libspace                  0x0803d08d   Thumb Code     0  libspace.o(.text)
    __user_perthread_libspace                0x0803d08d   Thumb Code     0  libspace.o(.text)
    __Heap_ProvideMemory                     0x0803d095   Thumb Code    52  h1_extend.o(.text)
    __rt_SIGRTMEM                            0x0803d0c9   Thumb Code    14  defsig_rtmem_outer.o(.text)
    __I$use$semihosting                      0x0803d0d7   Thumb Code     0  use_no_semi.o(.text)
    __use_no_semihosting_swi                 0x0803d0d7   Thumb Code     2  use_no_semi.o(.text)
    __semihosting_library_function           0x0803d0d9   Thumb Code     0  indicate_semi.o(.text)
    __user_setup_stackheap                   0x0803d0d9   Thumb Code    74  sys_stackheap_outer.o(.text)
    exit                                     0x0803d123   Thumb Code    18  exit.o(.text)
    __sig_exit                               0x0803d135   Thumb Code    10  defsig_exit.o(.text)
    __rt_SIGRTMEM_inner                      0x0803d141   Thumb Code    22  defsig_rtmem_inner.o(.text)
    _sys_exit                                0x0803d191   Thumb Code     8  sys_exit.o(.text)
    __default_signal_display                 0x0803d19d   Thumb Code    50  defsig_general.o(.text)
    _ttywrch                                 0x0803d1cf   Thumb Code    14  sys_wrch.o(.text)
    _fp_init                                 0x0803d1dd   Thumb Code    10  fpinit.o(x$fpl$fpinit)
    __fplib_config_fpu_vfp                   0x0803d1e5   Thumb Code     0  fpinit.o(x$fpl$fpinit)
    __fplib_config_pureend_doubles           0x0803d1e5   Thumb Code     0  fpinit.o(x$fpl$fpinit)
    B5Te0_S                                  0x0803d1e8   Data        1024  aes256.o(.constdata)
    B5Te1_S                                  0x0803d5e8   Data        1024  aes256.o(.constdata)
    B5Te2_S                                  0x0803d9e8   Data        1024  aes256.o(.constdata)
    B5Te3_S                                  0x0803dde8   Data        1024  aes256.o(.constdata)
    B5Te4_S                                  0x0803e1e8   Data        1024  aes256.o(.constdata)
    B5Td0_S                                  0x0803e5e8   Data        1024  aes256.o(.constdata)
    B5Td1_S                                  0x0803e9e8   Data        1024  aes256.o(.constdata)
    B5Td2_S                                  0x0803ede8   Data        1024  aes256.o(.constdata)
    B5Td3_S                                  0x0803f1e8   Data        1024  aes256.o(.constdata)
    B5Td4_S                                  0x0803f5e8   Data        1024  aes256.o(.constdata)
    B5_rcon                                  0x0803f9e8   Data          40  aes256.o(.constdata)
    se3_magic                                0x0803fa10   Data          32  se3_common.o(.constdata)
    se3_hello                                0x0803fa30   Data          32  se3_communication_core.o(.constdata)
    AHBPrescTable                            0x0803fa50   Data          16  system_stm32f4xx.o(.constdata)
    APBPrescTable                            0x0803fa60   Data           8  system_stm32f4xx.o(.constdata)
    STORAGE_Inquirydata_HS                   0x0803fa68   Data          36  usbd_storage_if.o(.constdata)
    APBAHBPrescTable                         0x0803fa94   Data          16  stm32f4xx_hal_rcc.o(.constdata)
    MSC_Page00_Inquiry_Data                  0x0803faa4   Data           7  usbd_msc_data.o(.constdata)
    MSC_Mode_Sense6_data                     0x0803faab   Data           8  usbd_msc_data.o(.constdata)
    MSC_Mode_Sense10_data                    0x0803fab3   Data           8  usbd_msc_data.o(.constdata)
    Region$$Table$$Base                      0x0803fabc   Number         0  anon$$obj.o(Region$$Table)
    Region$$Table$$Limit                     0x0803fadc   Number         0  anon$$obj.o(Region$$Table)
    hwerror                                  0x20000000   Data           2  se3_common.o(.data)
    algo_implementation                      0x200000c4   Data           1  se3_dispatcher_core.o(.data)
    crypto_algo                              0x200000c5   Data           1  se3_dispatcher_core.o(.data)
    algo_table                               0x200000c8   Data         208  se3_security_core.o(.data)
    hcrc                                     0x20000198   Data           8  crc.o(.data)
    SystemCoreClock                          0x200001a8   Data           4  system_stm32f4xx.o(.data)
    HS_Desc                                  0x200001ac   Data          28  usbd_desc.o(.data)
    USBD_HS_DeviceDesc                       0x200001c8   Data          18  usbd_desc.o(.data)
    USBD_LangIDDesc                          0x200001dc   Data           4  usbd_desc.o(.data)
    hUsbDevice_1                             0x200001e0   Data           4  usbd_storage_if.o(.data)
    USBD_Storage_Interface_fops_HS           0x200001e4   Data          32  usbd_storage_if.o(.data)
    uwTick                                   0x20000204   Data           4  stm32f4xx_hal.o(.data)
    USBD_MSC                                 0x20000210   Data          56  usbd_msc.o(.data)
    USBD_MSC_CfgHSDesc                       0x20000248   Data          32  usbd_msc.o(.data)
    USBD_MSC_CfgFSDesc                       0x20000268   Data          32  usbd_msc.o(.data)
    USBD_MSC_OtherSpeedCfgDesc               0x20000288   Data          32  usbd_msc.o(.data)
    USBD_MSC_DeviceQualifierDesc             0x200002a8   Data          10  usbd_msc.o(.data)
    serial                                   0x200002b4   Data          33  se3_common.o(.bss)
    comm                                     0x200002d8   Data         108  se3_communication_core.o(.bss)
    req_hdr                                  0x20000344   Data          68  se3_communication_core.o(.bss)
    resp_hdr                                 0x20000388   Data          68  se3_communication_core.o(.bss)
    se3_comm_request_buffer                  0x200003cc   Data        8192  se3_communication_core.o(.bss)
    se3_comm_response_buffer                 0x200023cc   Data        8192  se3_communication_core.o(.bss)
    login_struct                             0x200043cc   Data        1228  se3_dispatcher_core.o(.bss)
    se3_sessions_buf                         0x20004898   Data       32768  se3_core.o(.bss)
    se3_sessions_index                       0x2000c898   Data         400  se3_core.o(.bss)
    flash                                    0x2000ca28   Data          28  se3_flash.o(.bss)
    se3_security_info                        0x2000ca44   Data         228  se3_security_core.o(.bss)
    ctx                                      0x2000cb28   Data         360  se3_security_core.o(.bss)
    key_iterator                             0x2000cc90   Data          16  se3_sekey.o(.bss)
    hadc1                                    0x2000cca0   Data          72  adc.o(.bss)
    hnor1                                    0x2000cce8   Data          76  fmc.o(.bss)
    hnor2                                    0x2000cd34   Data          76  fmc.o(.bss)
    hi2c2                                    0x2000cd80   Data          68  i2c.o(.bss)
    hrng                                     0x2000cdc4   Data          12  rng.o(.bss)
    hsd                                      0x2000cdd0   Data          96  sdio.o(.bss)
    SDCardInfo                               0x2000ce30   Data          88  sdio.o(.bss)
    hdma_sdio_rx                             0x2000ce88   Data          88  sdio.o(.bss)
    hdma_sdio_tx                             0x2000cee0   Data          88  sdio.o(.bss)
    hspi5                                    0x2000cf38   Data          88  spi.o(.bss)
    htim4                                    0x2000cf90   Data          60  tim.o(.bss)
    huart1                                   0x2000cfcc   Data          64  usart.o(.bss)
    hsc6                                     0x2000d00c   Data          80  usart.o(.bss)
    hUsbDeviceHS                             0x2000d05c   Data         548  usb_device.o(.bss)
    hpcd_USB_OTG_HS                          0x2000d280   Data         952  usbd_conf.o(.bss)
    USBD_StrDesc                             0x2000d638   Data         512  usbd_desc.o(.bss)
    pFlash                                   0x2000d838   Data          32  stm32f4xx_hal_flash.o(.bss)
    __libspace_start                         0x2000d858   Data          96  libspace.o(.bss)
    __temporary_stack_top$libspace           0x2000d8b8   Data           0  libspace.o(.bss)



==============================================================================

Memory Map of the image

  Image Entry point : 0x080201c9

  Load Region FLASH_USB_BOOT_SECTOR_5 (Base: 0x08020040, Size: 0x0001fd50, Max: 0x0005ffc0, ABSOLUTE, COMPRESSED[0x0001fbc8])

    Execution Region FLASH_BOOT (Exec base: 0x08020040, Load base: 0x08020040, Size: 0x0001fa9c, Max: 0x0005ffc0, ABSOLUTE)

    Exec Addr    Load Addr    Size         Type   Attr      Idx    E Section Name        Object

    0x08020040   0x08020040   0x00000188   Data   RO            3    RESET               startup_stm32f429nihx.o
    0x080201c8   0x080201c8   0x00000008   Code   RO         3099  * !!!main             c_w.l(__main.o)
    0x080201d0   0x080201d0   0x00000034   Code   RO         3316    !!!scatter          c_w.l(__scatter.o)
    0x08020204   0x08020204   0x0000005a   Code   RO         3314    !!dczerorl2         c_w.l(__dczerorl2.o)
    0x0802025e   0x0802025e   0x00000002   PAD
    0x08020260   0x08020260   0x0000001c   Code   RO         3318    !!handler_zi        c_w.l(__scatter_zi.o)
    0x0802027c   0x0802027c   0x00000002   Code   RO         3251    .ARM.Collect$$libinit$$00000000  c_w.l(libinit.o)
    0x0802027e   0x0802027e   0x00000004   Code   RO         3137    .ARM.Collect$$libinit$$00000001  c_w.l(libinit2.o)
    0x08020282   0x08020282   0x00000000   Code   RO         3140    .ARM.Collect$$libinit$$00000004  c_w.l(libinit2.o)
    0x08020282   0x08020282   0x00000008   Code   RO         3141    .ARM.Collect$$libinit$$00000005  c_w.l(libinit2.o)
    0x0802028a   0x0802028a   0x00000000   Code   RO         3143    .ARM.Collect$$libinit$$0000000A  c_w.l(libinit2.o)
    0x0802028a   0x0802028a   0x00000000   Code   RO         3145    .ARM.Collect$$libinit$$0000000C  c_w.l(libinit2.o)
    0x0802028a   0x0802028a   0x00000000   Code   RO         3147    .ARM.Collect$$libinit$$0000000E  c_w.l(libinit2.o)
    0x0802028a   0x0802028a   0x00000000   Code   RO         3150    .ARM.Collect$$libinit$$00000011  c_w.l(libinit2.o)
    0x0802028a   0x0802028a   0x00000000   Code   RO         3152    .ARM.Collect$$libinit$$00000013  c_w.l(libinit2.o)
    0x0802028a   0x0802028a   0x00000000   Code   RO         3154    .ARM.Collect$$libinit$$00000015  c_w.l(libinit2.o)
    0x0802028a   0x0802028a   0x00000000   Code   RO         3156    .ARM.Collect$$libinit$$00000017  c_w.l(libinit2.o)
    0x0802028a   0x0802028a   0x00000000   Code   RO         3158    .ARM.Collect$$libinit$$00000019  c_w.l(libinit2.o)
    0x0802028a   0x0802028a   0x00000000   Code   RO         3160    .ARM.Collect$$libinit$$0000001B  c_w.l(libinit2.o)
    0x0802028a   0x0802028a   0x00000000   Code   RO         3162    .ARM.Collect$$libinit$$0000001D  c_w.l(libinit2.o)
    0x0802028a   0x0802028a   0x00000000   Code   RO         3164    .ARM.Collect$$libinit$$0000001F  c_w.l(libinit2.o)
    0x0802028a   0x0802028a   0x00000000   Code   RO         3166    .ARM.Collect$$libinit$$00000021  c_w.l(libinit2.o)
    0x0802028a   0x0802028a   0x00000000   Code   RO         3168    .ARM.Collect$$libinit$$00000023  c_w.l(libinit2.o)
    0x0802028a   0x0802028a   0x00000000   Code   RO         3170    .ARM.Collect$$libinit$$00000025  c_w.l(libinit2.o)
    0x0802028a   0x0802028a   0x00000000   Code   RO         3174    .ARM.Collect$$libinit$$0000002C  c_w.l(libinit2.o)
    0x0802028a   0x0802028a   0x00000000   Code   RO         3176    .ARM.Collect$$libinit$$0000002E  c_w.l(libinit2.o)
    0x0802028a   0x0802028a   0x00000000   Code   RO         3178    .ARM.Collect$$libinit$$00000030  c_w.l(libinit2.o)
    0x0802028a   0x0802028a   0x00000000   Code   RO         3180    .ARM.Collect$$libinit$$00000032  c_w.l(libinit2.o)
    0x0802028a   0x0802028a   0x00000002   Code   RO         3181    .ARM.Collect$$libinit$$00000033  c_w.l(libinit2.o)
    0x0802028c   0x0802028c   0x00000002   Code   RO         3311    .ARM.Collect$$libshutdown$$00000000  c_w.l(libshutdown.o)
    0x0802028e   0x0802028e   0x00000000   Code   RO         3267    .ARM.Collect$$libshutdown$$00000002  c_w.l(libshutdown2.o)
    0x0802028e   0x0802028e   0x00000000   Code   RO         3269    .ARM.Collect$$libshutdown$$00000004  c_w.l(libshutdown2.o)
    0x0802028e   0x0802028e   0x00000000   Code   RO         3271    .ARM.Collect$$libshutdown$$00000006  c_w.l(libshutdown2.o)
    0x0802028e   0x0802028e   0x00000000   Code   RO         3274    .ARM.Collect$$libshutdown$$00000009  c_w.l(libshutdown2.o)
    0x0802028e   0x0802028e   0x00000000   Code   RO         3277    .ARM.Collect$$libshutdown$$0000000C  c_w.l(libshutdown2.o)
    0x0802028e   0x0802028e   0x00000000   Code   RO         3279    .ARM.Collect$$libshutdown$$0000000E  c_w.l(libshutdown2.o)
    0x0802028e   0x0802028e   0x00000000   Code   RO         3282    .ARM.Collect$$libshutdown$$00000011  c_w.l(libshutdown2.o)
    0x0802028e   0x0802028e   0x00000002   Code   RO         3283    .ARM.Collect$$libshutdown$$00000012  c_w.l(libshutdown2.o)
    0x08020290   0x08020290   0x00000000   Code   RO         3103    .ARM.Collect$$rtentry$$00000000  c_w.l(__rtentry.o)
    0x08020290   0x08020290   0x00000000   Code   RO         3188    .ARM.Collect$$rtentry$$00000002  c_w.l(__rtentry2.o)
    0x08020290   0x08020290   0x00000006   Code   RO         3200    .ARM.Collect$$rtentry$$00000004  c_w.l(__rtentry4.o)
    0x08020296   0x08020296   0x00000000   Code   RO         3190    .ARM.Collect$$rtentry$$00000009  c_w.l(__rtentry2.o)
    0x08020296   0x08020296   0x00000004   Code   RO         3191    .ARM.Collect$$rtentry$$0000000A  c_w.l(__rtentry2.o)
    0x0802029a   0x0802029a   0x00000000   Code   RO         3193    .ARM.Collect$$rtentry$$0000000C  c_w.l(__rtentry2.o)
    0x0802029a   0x0802029a   0x00000008   Code   RO         3194    .ARM.Collect$$rtentry$$0000000D  c_w.l(__rtentry2.o)
    0x080202a2   0x080202a2   0x00000002   Code   RO         3254    .ARM.Collect$$rtexit$$00000000  c_w.l(rtexit.o)
    0x080202a4   0x080202a4   0x00000000   Code   RO         3287    .ARM.Collect$$rtexit$$00000002  c_w.l(rtexit2.o)
    0x080202a4   0x080202a4   0x00000004   Code   RO         3288    .ARM.Collect$$rtexit$$00000003  c_w.l(rtexit2.o)
    0x080202a8   0x080202a8   0x00000006   Code   RO         3289    .ARM.Collect$$rtexit$$00000004  c_w.l(rtexit2.o)
    0x080202ae   0x080202ae   0x00000002   PAD
    0x080202b0   0x080202b0   0x00000000   Code   RO         3206    .emb_text           c_w.l(maybetermalloc1.o)
    0x080202b0   0x080202b0   0x00000040   Code   RO            4    .text               startup_stm32f429nihx.o
    0x080202f0   0x080202f0   0x000025e2   Code   RO           10    .text               aes256.o
    0x080228d2   0x080228d2   0x0000011e   Code   RO           56    .text               pbkdf2.o
    0x080229f0   0x080229f0   0x00000118   Code   RO           74    .text               se3_common.o
    0x08022b08   0x08022b08   0x00002532   Code   RO          115    .text               sha256.o
    0x0802503a   0x0802503a   0x000001ce   Code   RO          130    .text               se3_algo_aes.o
    0x08025208   0x08025208   0x000003c2   Code   RO          344    .text               se3_algo_aeshmacsha256s.o
    0x080255ca   0x080255ca   0x0000008e   Code   RO          371    .text               se3_algo_hmacsha256.o
    0x08025658   0x08025658   0x0000007c   Code   RO          398    .text               se3_algo_sha256.o
    0x080256d4   0x080256d4   0x0000054c   Code   RO          422    .text               se3_communication_core.o
    0x08025c20   0x08025c20   0x00000880   Code   RO          451    .text               se3_dispatcher_core.o
    0x080264a0   0x080264a0   0x000002bc   Code   RO          497    .text               se3_core.o
    0x0802675c   0x0802675c   0x000005c4   Code   RO          553    .text               se3_flash.o
    0x08026d20   0x08026d20   0x00000150   Code   RO          603    .text               se3_keys.o
    0x08026e70   0x08026e70   0x000003ba   Code   RO          624    .text               se3_memory.o
    0x0802722a   0x0802722a   0x00000002   PAD
    0x0802722c   0x0802722c   0x00000618   Code   RO          642    .text               se3_security_core.o
    0x08027844   0x08027844   0x00000bde   Code   RO          686    .text               se3_sekey.o
    0x08028422   0x08028422   0x00000002   PAD
    0x08028424   0x08028424   0x000000bc   Code   RO          764    .text               adc.o
    0x080284e0   0x080284e0   0x00000060   Code   RO          797    .text               crc.o
    0x08028540   0x08028540   0x00000048   Code   RO          827    .text               dma.o
    0x08028588   0x08028588   0x000001ec   Code   RO          854    .text               fmc.o
    0x08028774   0x08028774   0x000001d8   Code   RO          885    .text               gpio.o
    0x0802894c   0x0802894c   0x000000b0   Code   RO          909    .text               i2c.o
    0x080289fc   0x080289fc   0x00000110   Code   RO          939    .text               main.o
    0x08028b0c   0x08028b0c   0x00000060   Code   RO         1022    .text               rng.o
    0x08028b6c   0x08028b6c   0x000001ac   Code   RO         1052    .text               sdio.o
    0x08028d18   0x08028d18   0x00000088   Code   RO         1082    .text               se3_rand.o
    0x08028da0   0x08028da0   0x000000c8   Code   RO         1110    .text               se3_sdio.o
    0x08028e68   0x08028e68   0x000000c4   Code   RO         1164    .text               spi.o
    0x08028f2c   0x08028f2c   0x00000014   Code   RO         1194    .text               stm32f4xx_hal_msp.o
    0x08028f40   0x08028f40   0x00000044   Code   RO         1218    .text               stm32f4xx_it.o
    0x08028f84   0x08028f84   0x0000011c   Code   RO         1246    .text               system_stm32f4xx.o
    0x080290a0   0x080290a0   0x000000c8   Code   RO         1277    .text               tim.o
    0x08029168   0x08029168   0x000001d8   Code   RO         1307    .text               usart.o
    0x08029340   0x08029340   0x00000034   Code   RO         1337    .text               usb_device.o
    0x08029374   0x08029374   0x00000404   Code   RO         1371    .text               usbd_conf.o
    0x08029778   0x08029778   0x000000f0   Code   RO         1398    .text               usbd_desc.o
    0x08029868   0x08029868   0x0000008e   Code   RO         1429    .text               usbd_storage_if.o
    0x080298f6   0x080298f6   0x00000002   PAD
    0x080298f8   0x080298f8   0x000001c8   Code   RO         1463    .text               stm32f4xx_hal.o
    0x08029ac0   0x08029ac0   0x00000be0   Code   RO         1490    .text               stm32f4xx_hal_adc.o
    0x0802a6a0   0x0802a6a0   0x000008c8   Code   RO         1514    .text               stm32f4xx_hal_adc_ex.o
    0x0802af68   0x0802af68   0x0000031c   Code   RO         1574    .text               stm32f4xx_hal_cortex.o
    0x0802b284   0x0802b284   0x000000e0   Code   RO         1602    .text               stm32f4xx_hal_crc.o
    0x0802b364   0x0802b364   0x00000618   Code   RO         1734    .text               stm32f4xx_hal_dma.o
    0x0802b97c   0x0802b97c   0x00000488   Code   RO         1837    .text               stm32f4xx_hal_flash.o
    0x0802be04   0x0802be04   0x00000680   Code   RO         1864    .text               stm32f4xx_hal_flash_ex.o
    0x0802c484   0x0802c484   0x000003dc   Code   RO         1943    .text               stm32f4xx_hal_gpio.o
    0x0802c860   0x0802c860   0x00003194   Code   RO         2021    .text               stm32f4xx_hal_i2c.o
    0x0802f9f4   0x0802f9f4   0x00000628   Code   RO         2213    .text               stm32f4xx_hal_nor.o
    0x0803001c   0x0803001c   0x00000be8   Code   RO         2255    .text               stm32f4xx_hal_pcd.o
    0x08030c04   0x08030c04   0x0000005c   Code   RO         2279    .text               stm32f4xx_hal_pcd_ex.o
    0x08030c60   0x08030c60   0x000008e0   Code   RO         2369    .text               stm32f4xx_hal_rcc.o
    0x08031540   0x08031540   0x000001ee   Code   RO         2420    .text               stm32f4xx_hal_rng.o
    0x0803172e   0x0803172e   0x00000002   PAD
    0x08031730   0x08031730   0x00001d24   Code   RO         2516    .text               stm32f4xx_hal_sd.o
    0x08033454   0x08033454   0x00000934   Code   RO         2558    .text               stm32f4xx_hal_smartcard.o
    0x08033d88   0x08033d88   0x00001560   Code   RO         2600    .text               stm32f4xx_hal_spi.o
    0x080352e8   0x080352e8   0x000027f8   Code   RO         2642    .text               stm32f4xx_hal_tim.o
    0x08037ae0   0x08037ae0   0x00000d80   Code   RO         2666    .text               stm32f4xx_hal_tim_ex.o
    0x08038860   0x08038860   0x00000f80   Code   RO         2690    .text               stm32f4xx_hal_uart.o
    0x080397e0   0x080397e0   0x00000590   Code   RO         2750    .text               stm32f4xx_ll_fmc.o
    0x08039d70   0x08039d70   0x000000f4   Code   RO         2792    .text               stm32f4xx_ll_sdmmc.o
    0x08039e64   0x08039e64   0x00001518   Code   RO         2816    .text               stm32f4xx_ll_usb.o
    0x0803b37c   0x0803b37c   0x00000358   Code   RO         2841    .text               usbd_core.o
    0x0803b6d4   0x0803b6d4   0x0000062e   Code   RO         2865    .text               usbd_ctlreq.o
    0x0803bd02   0x0803bd02   0x000000c0   Code   RO         2890    .text               usbd_ioreq.o
    0x0803bdc2   0x0803bdc2   0x00000002   PAD
    0x0803bdc4   0x0803bdc4   0x0000022c   Code   RO         2914    .text               usbd_msc.o
    0x0803bff0   0x0803bff0   0x0000030c   Code   RO         2944    .text               usbd_msc_bot.o
    0x0803c2fc   0x0803c2fc   0x00000864   Code   RO         2992    .text               usbd_msc_scsi.o
    0x0803cb60   0x0803cb60   0x0000005e   Code   RO         3023    .text               c_w.l(h1_alloc.o)
    0x0803cbbe   0x0803cbbe   0x0000004e   Code   RO         3025    .text               c_w.l(h1_free.o)
    0x0803cc0c   0x0803cc0c   0x000000ee   Code   RO         3081    .text               c_w.l(lludivv7m.o)
    0x0803ccfa   0x0803ccfa   0x00000058   Code   RO         3083    .text               c_w.l(memcmp.o)
    0x0803cd52   0x0803cd52   0x0000008a   Code   RO         3085    .text               c_w.l(rt_memcpy_v6.o)
    0x0803cddc   0x0803cddc   0x00000084   Code   RO         3087    .text               c_w.l(rt_memmove_v6.o)
    0x0803ce60   0x0803ce60   0x00000064   Code   RO         3089    .text               c_w.l(rt_memcpy_w.o)
    0x0803cec4   0x0803cec4   0x00000010   Code   RO         3091    .text               c_w.l(aeabi_memset.o)
    0x0803ced4   0x0803ced4   0x00000044   Code   RO         3093    .text               c_w.l(rt_memclr.o)
    0x0803cf18   0x0803cf18   0x0000004e   Code   RO         3095    .text               c_w.l(rt_memclr_w.o)
    0x0803cf66   0x0803cf66   0x00000006   Code   RO         3097    .text               c_w.l(heapauxi.o)
    0x0803cf6c   0x0803cf6c   0x00000008   Code   RO         3111    .text               c_w.l(rt_heap_descriptor_intlibspace.o)
    0x0803cf74   0x0803cf74   0x00000004   Code   RO         3113    .text               c_w.l(hguard.o)
    0x0803cf78   0x0803cf78   0x0000008a   Code   RO         3115    .text               c_w.l(init_alloc.o)
    0x0803d002   0x0803d002   0x0000000e   Code   RO         3119    .text               c_w.l(h1_init.o)
    0x0803d010   0x0803d010   0x0000007a   Code   RO         3133    .text               c_w.l(rt_memmove_w.o)
    0x0803d08a   0x0803d08a   0x00000002   PAD
    0x0803d08c   0x0803d08c   0x00000008   Code   RO         3184    .text               c_w.l(libspace.o)
    0x0803d094   0x0803d094   0x00000034   Code   RO         3208    .text               c_w.l(h1_extend.o)
    0x0803d0c8   0x0803d0c8   0x0000000e   Code   RO         3212    .text               c_w.l(defsig_rtmem_outer.o)
    0x0803d0d6   0x0803d0d6   0x00000002   Code   RO         3223    .text               c_w.l(use_no_semi.o)
    0x0803d0d8   0x0803d0d8   0x00000000   Code   RO         3225    .text               c_w.l(indicate_semi.o)
    0x0803d0d8   0x0803d0d8   0x0000004a   Code   RO         3226    .text               c_w.l(sys_stackheap_outer.o)
    0x0803d122   0x0803d122   0x00000012   Code   RO         3232    .text               c_w.l(exit.o)
    0x0803d134   0x0803d134   0x0000000a   Code   RO         3234    .text               c_w.l(defsig_exit.o)
    0x0803d13e   0x0803d13e   0x00000002   PAD
    0x0803d140   0x0803d140   0x00000050   Code   RO         3240    .text               c_w.l(defsig_rtmem_inner.o)
    0x0803d190   0x0803d190   0x0000000c   Code   RO         3252    .text               c_w.l(sys_exit.o)
    0x0803d19c   0x0803d19c   0x00000032   Code   RO         3262    .text               c_w.l(defsig_general.o)
    0x0803d1ce   0x0803d1ce   0x0000000e   Code   RO         3284    .text               c_w.l(sys_wrch.o)
    0x0803d1dc   0x0803d1dc   0x0000000a   Code   RO         3221    x$fpl$fpinit        fz_wm.l(fpinit.o)
    0x0803d1e6   0x0803d1e6   0x00000002   PAD
    0x0803d1e8   0x0803d1e8   0x00002828   Data   RO           11    .constdata          aes256.o
    0x0803fa10   0x0803fa10   0x00000020   Data   RO           76    .constdata          se3_common.o
    0x0803fa30   0x0803fa30   0x00000020   Data   RO          424    .constdata          se3_communication_core.o
    0x0803fa50   0x0803fa50   0x00000018   Data   RO         1247    .constdata          system_stm32f4xx.o
    0x0803fa68   0x0803fa68   0x00000024   Data   RO         1430    .constdata          usbd_storage_if.o
    0x0803fa8c   0x0803fa8c   0x00000008   Data   RO         1735    .constdata          stm32f4xx_hal_dma.o
    0x0803fa94   0x0803fa94   0x00000010   Data   RO         2370    .constdata          stm32f4xx_hal_rcc.o
    0x0803faa4   0x0803faa4   0x00000017   Data   RO         2968    .constdata          usbd_msc_data.o
    0x0803fabb   0x0803fabb   0x00000001   PAD
    0x0803fabc   0x0803fabc   0x00000020   Data   RO         3312    Region$$Table       anon$$obj.o


    Execution Region RAM_BOOT (Exec base: 0x20000000, Load base: 0x0803fadc, Size: 0x000248b8, Max: 0x00028000, ABSOLUTE, COMPRESSED[0x0000012c])

    Exec Addr    Load Addr    Size         Type   Attr      Idx    E Section Name        Object

    0x20000000   COMPRESSED   0x00000002   Data   RW           77    .data               se3_common.o
    0x20000002   COMPRESSED   0x00000002   PAD
    0x20000004   COMPRESSED   0x000000c2   Data   RW          453    .data               se3_dispatcher_core.o
    0x200000c6   COMPRESSED   0x00000002   PAD
    0x200000c8   COMPRESSED   0x000000d0   Data   RW          644    .data               se3_security_core.o
    0x20000198   COMPRESSED   0x00000008   Data   RW          798    .data               crc.o
    0x200001a0   COMPRESSED   0x00000008   Data   RW          856    .data               fmc.o
    0x200001a8   COMPRESSED   0x00000004   Data   RW         1248    .data               system_stm32f4xx.o
    0x200001ac   COMPRESSED   0x00000034   Data   RW         1400    .data               usbd_desc.o
    0x200001e0   COMPRESSED   0x00000024   Data   RW         1431    .data               usbd_storage_if.o
    0x20000204   COMPRESSED   0x00000004   Data   RW         1464    .data               stm32f4xx_hal.o
    0x20000208   COMPRESSED   0x00000004   Data   RW         2817    .data               stm32f4xx_ll_usb.o
    0x2000020c   COMPRESSED   0x00000001   Data   RW         2866    .data               usbd_ctlreq.o
    0x2000020d   COMPRESSED   0x00000003   PAD
    0x20000210   COMPRESSED   0x000000a2   Data   RW         2915    .data               usbd_msc.o
    0x200002b2   COMPRESSED   0x00000002   PAD
    0x200002b4        -       0x00000021   Zero   RW           75    .bss                se3_common.o
    0x200002d5   COMPRESSED   0x00000003   PAD
    0x200002d8        -       0x000040f4   Zero   RW          423    .bss                se3_communication_core.o
    0x200043cc        -       0x000004cc   Zero   RW          452    .bss                se3_dispatcher_core.o
    0x20004898        -       0x00008190   Zero   RW          498    .bss                se3_core.o
    0x2000ca28        -       0x0000001c   Zero   RW          554    .bss                se3_flash.o
    0x2000ca44        -       0x0000024c   Zero   RW          643    .bss                se3_security_core.o
    0x2000cc90        -       0x00000010   Zero   RW          687    .bss                se3_sekey.o
    0x2000cca0        -       0x00000048   Zero   RW          765    .bss                adc.o
    0x2000cce8        -       0x00000098   Zero   RW          855    .bss                fmc.o
    0x2000cd80        -       0x00000044   Zero   RW          910    .bss                i2c.o
    0x2000cdc4        -       0x0000000c   Zero   RW         1023    .bss                rng.o
    0x2000cdd0        -       0x00000168   Zero   RW         1053    .bss                sdio.o
    0x2000cf38        -       0x00000058   Zero   RW         1165    .bss                spi.o
    0x2000cf90        -       0x0000003c   Zero   RW         1278    .bss                tim.o
    0x2000cfcc        -       0x00000090   Zero   RW         1308    .bss                usart.o
    0x2000d05c        -       0x00000224   Zero   RW         1338    .bss                usb_device.o
    0x2000d280        -       0x000003b8   Zero   RW         1372    .bss                usbd_conf.o
    0x2000d638        -       0x00000200   Zero   RW         1399    .bss                usbd_desc.o
    0x2000d838        -       0x00000020   Zero   RW         1838    .bss                stm32f4xx_hal_flash.o
    0x2000d858        -       0x00000060   Zero   RW         3185    .bss                c_w.l(libspace.o)
    0x2000d8b8        -       0x00013000   Zero   RW            2    HEAP                startup_stm32f429nihx.o
    0x200208b8        -       0x00004000   Zero   RW            1    STACK               startup_stm32f429nihx.o


==============================================================================

Image component sizes


      Code (inc. data)   RO Data    RW Data    ZI Data      Debug   Object Name

       188         16          0          0         72       1489   adc.o
      9698         72      10280          0          0      16838   aes256.o
        96         14          0          8          0       1487   crc.o
         0          0          0          0          0        524   crc16.o
        72          4          0          0          0        778   dma.o
       492         40          0          8        152       2050   fmc.o
       472         20          0          0          0       1267   gpio.o
       176         22          0          0         68       1461   i2c.o
       272          8          0          0          0       5866   main.o
       286          0          0          0          0       2971   pbkdf2.o
        96         14          0          0         12       1487   rng.o
       428         38          0          0        360       1769   sdio.o
       462         22          0          0          0     523820   se3_algo_aes.o
       962         12          0          0          0       3202   se3_algo_aeshmacsha256s.o
       142          0          0          0          0       1898   se3_algo_hmacsha256.o
       124          0          0          0          0       1838   se3_algo_sha256.o
       280          0         32          2         33       4447   se3_common.o
      1356         42         32          0      16628       6510   se3_communication_core.o
       700         34          0          0      33168       8364   se3_core.o
      2176         64          0        194       1228       9216   se3_dispatcher_core.o
      1476         32          0          0         28       9122   se3_flash.o
       336          0          0          0          0       2616   se3_keys.o
       954          0          0          0          0       4704   se3_memory.o
       136          6          0          0          0       1462   se3_rand.o
       200         12          0          0          0       7147   se3_sdio.o
      1560         12          0        208        588       8014   se3_security_core.o
      3038         24          0          0         16      11980   se3_sekey.o
      9522        290          0          0          0       6050   sha256.o
       196         16          0          0         88       1477   spi.o
        64         26        392          0      94208        864   startup_stm32f429nihx.o
       456         24          0          4          0       5154   stm32f4xx_hal.o
      3040         76          0          0          0       8343   stm32f4xx_hal_adc.o
      2248         52          0          0          0       6194   stm32f4xx_hal_adc_ex.o
       796         20          0          0          0      32247   stm32f4xx_hal_cortex.o
       224          0          0          0          0       2794   stm32f4xx_hal_crc.o
      1560         16          8          0          0       5140   stm32f4xx_hal_dma.o
      1160         34          0          0         32       4629   stm32f4xx_hal_flash.o
      1664         20          0          0          0       7208   stm32f4xx_hal_flash_ex.o
       988         54          0          0          0       3803   stm32f4xx_hal_gpio.o
     12692        164          0          0          0      31780   stm32f4xx_hal_i2c.o
        20          0          0          0          0        502   stm32f4xx_hal_msp.o
      1576          0          0          0          0       8531   stm32f4xx_hal_nor.o
      3048          0          0          0          0      10483   stm32f4xx_hal_pcd.o
        92          0          0          0          0       1538   stm32f4xx_hal_pcd_ex.o
      2272         62         16          0          0       5450   stm32f4xx_hal_rcc.o
       494          0          0          0          0       4085   stm32f4xx_hal_rng.o
      7460         50          0          0          0      23283   stm32f4xx_hal_sd.o
      2356         24          0          0          0       8142   stm32f4xx_hal_smartcard.o
      5472         82          0          0          0      16292   stm32f4xx_hal_spi.o
     10232        152          0          0          0      32606   stm32f4xx_hal_tim.o
      3456         24          0          0          0      12342   stm32f4xx_hal_tim_ex.o
      3968         28          0          0          0      12263   stm32f4xx_hal_uart.o
        68         16          0          0          0       1032   stm32f4xx_it.o
      1424         16          0          0          0       9241   stm32f4xx_ll_fmc.o
       244          8          0          0          0       3896   stm32f4xx_ll_sdmmc.o
      5400         68          0          4          0      14389   stm32f4xx_ll_usb.o
       284         28         24          4          0       1597   system_stm32f4xx.o
       200         16          0          0         60       1893   tim.o
       472         38          0          0        144       2319   usart.o
        52         16          0          0        548        736   usb_device.o
      1028         32          0          0        952       8130   usbd_conf.o
       856          0          0          0          0       6037   usbd_core.o
      1582         28          0          1          0       5382   usbd_ctlreq.o
       240         64          0         52        512       3419   usbd_desc.o
       192          0          0          0          0       2770   usbd_ioreq.o
       556         18          0        162          0       5726   usbd_msc.o
       780         10          0          0          0       3669   usbd_msc_bot.o
         0          0         23          0          0        893   usbd_msc_data.o
      2148         12          0          0          0       7281   usbd_msc_scsi.o
       142          0         36         36          0       2845   usbd_storage_if.o

    ----------------------------------------------------------------------
    116912       2092      10876        692     148900     974782   Object Totals
         0          0         32          0          0          0   (incl. Generated)
        10          0          1          9          3          0   (incl. Padding)

    ----------------------------------------------------------------------

      Code (inc. data)   RO Data    RW Data    ZI Data      Debug   Library Member Name

        90          0          0          0          0          0   __dczerorl2.o
         8          0          0          0          0         68   __main.o
         0          0          0          0          0          0   __rtentry.o
        12          0          0          0          0          0   __rtentry2.o
         6          0          0          0          0          0   __rtentry4.o
        52          8          0          0          0          0   __scatter.o
        28          0          0          0          0          0   __scatter_zi.o
        16          0          0          0          0         68   aeabi_memset.o
        10          0          0          0          0         68   defsig_exit.o
        50          0          0          0          0         88   defsig_general.o
        80         58          0          0          0         76   defsig_rtmem_inner.o
        14          0          0          0          0         80   defsig_rtmem_outer.o
        18          0          0          0          0         80   exit.o
        94          0          0          0          0         80   h1_alloc.o
        52          0          0          0          0         68   h1_extend.o
        78          0          0          0          0         80   h1_free.o
        14          0          0          0          0         84   h1_init.o
         6          0          0          0          0        152   heapauxi.o
         4          0          0          0          0        136   hguard.o
         0          0          0          0          0          0   indicate_semi.o
       138          0          0          0          0        168   init_alloc.o
         2          0          0          0          0          0   libinit.o
        14          0          0          0          0          0   libinit2.o
         2          0          0          0          0          0   libshutdown.o
         2          0          0          0          0          0   libshutdown2.o
         8          4          0          0         96         68   libspace.o
       238          0          0          0          0        100   lludivv7m.o
         0          0          0          0          0          0   maybetermalloc1.o
        88          0          0          0          0         76   memcmp.o
         8          4          0          0          0         68   rt_heap_descriptor_intlibspace.o
        68          0          0          0          0         68   rt_memclr.o
        78          0          0          0          0         80   rt_memclr_w.o
       138          0          0          0          0         68   rt_memcpy_v6.o
       100          0          0          0          0         80   rt_memcpy_w.o
       132          0          0          0          0         68   rt_memmove_v6.o
       122          0          0          0          0         80   rt_memmove_w.o
         2          0          0          0          0          0   rtexit.o
        10          0          0          0          0          0   rtexit2.o
        12          4          0          0          0         68   sys_exit.o
        74          0          0          0          0         80   sys_stackheap_outer.o
        14          0          0          0          0         76   sys_wrch.o
         2          0          0          0          0         68   use_no_semi.o
        10          0          0          0          0        116   fpinit.o

    ----------------------------------------------------------------------
      1904         78          0          0         96       2460   Library Totals
        10          0          0          0          0          0   (incl. Padding)

    ----------------------------------------------------------------------

      Code (inc. data)   RO Data    RW Data    ZI Data      Debug   Library Name

      1884         78          0          0         96       2344   c_w.l
        10          0          0          0          0        116   fz_wm.l

    ----------------------------------------------------------------------
      1904         78          0          0         96       2460   Library Totals

    ----------------------------------------------------------------------

==============================================================================


      Code (inc. data)   RO Data    RW Data    ZI Data      Debug   

    118816       2170      10876        692     148996     960642   Grand Totals
    118816       2170      10876        300     148996     960642   ELF Image Totals (compressed)
    118816       2170      10876        300          0          0   ROM Totals

==============================================================================

    Total RO  Size (Code + RO Data)               129692 ( 126.65kB)
    Total RW  Size (RW Data + ZI Data)            149688 ( 146.18kB)
    Total ROM Size (Code + RO Data + RW Data)     129992 ( 126.95kB)

==============================================================================

